
shell:     formato del file elf32-i386


Disassemblamento della sezione .text:

00100000 <main>:
  100000:	8d 4c 24 04          	lea    0x4(%esp),%ecx
  100004:	83 e4 f0             	and    $0xfffffff0,%esp
  100007:	ff 71 fc             	push   -0x4(%ecx)
  10000a:	55                   	push   %ebp
  10000b:	89 e5                	mov    %esp,%ebp
  10000d:	56                   	push   %esi
  10000e:	53                   	push   %ebx
  10000f:	51                   	push   %ecx
  100010:	81 ec 9c 00 00 00    	sub    $0x9c,%esp
  100016:	e8 f8 18 00 00       	call   101913 <__x86.get_pc_thunk.bx>
  10001b:	81 c3 d5 23 00 00    	add    $0x23d5,%ebx
  100021:	c7 45 d4 00 00 00 00 	movl   $0x0,-0x2c(%ebp)
  100028:	c7 45 d0 00 00 00 00 	movl   $0x0,-0x30(%ebp)
  10002f:	83 ec 0c             	sub    $0xc,%esp
  100032:	6a 08                	push   $0x8
  100034:	e8 12 13 00 00       	call   10134b <malloc>
  100039:	83 c4 10             	add    $0x10,%esp
  10003c:	83 ec 0c             	sub    $0xc,%esp
  10003f:	8d 83 2f f5 ff ff    	lea    -0xad1(%ebx),%eax
  100045:	50                   	push   %eax
  100046:	e8 80 0e 00 00       	call   100ecb <printf>
  10004b:	83 c4 10             	add    $0x10,%esp
  10004e:	e8 d7 04 00 00       	call   10052a <check_free_mem>
  100053:	c7 45 d4 00 00 00 00 	movl   $0x0,-0x2c(%ebp)
  10005a:	83 ec 0c             	sub    $0xc,%esp
  10005d:	8d 83 3f f5 ff ff    	lea    -0xac1(%ebx),%eax
  100063:	50                   	push   %eax
  100064:	e8 62 0e 00 00       	call   100ecb <printf>
  100069:	83 c4 10             	add    $0x10,%esp
  10006c:	83 ec 08             	sub    $0x8,%esp
  10006f:	8d 85 58 ff ff ff    	lea    -0xa8(%ebp),%eax
  100075:	50                   	push   %eax
  100076:	8d 83 45 f5 ff ff    	lea    -0xabb(%ebx),%eax
  10007c:	50                   	push   %eax
  10007d:	e8 49 0f 00 00       	call   100fcb <scanf>
  100082:	83 c4 10             	add    $0x10,%esp
  100085:	0f b6 85 58 ff ff ff 	movzbl -0xa8(%ebp),%eax
  10008c:	3c 63                	cmp    $0x63,%al
  10008e:	75 42                	jne    1000d2 <main+0xd2>
  100090:	0f b6 85 59 ff ff ff 	movzbl -0xa7(%ebp),%eax
  100097:	3c 64                	cmp    $0x64,%al
  100099:	75 37                	jne    1000d2 <main+0xd2>
  10009b:	0f b6 85 5a ff ff ff 	movzbl -0xa6(%ebp),%eax
  1000a2:	3c 20                	cmp    $0x20,%al
  1000a4:	75 2c                	jne    1000d2 <main+0xd2>
  1000a6:	83 ec 0c             	sub    $0xc,%esp
  1000a9:	8d 85 58 ff ff ff    	lea    -0xa8(%ebp),%eax
  1000af:	83 c0 03             	add    $0x3,%eax
  1000b2:	50                   	push   %eax
  1000b3:	e8 e8 03 00 00       	call   1004a0 <cd>
  1000b8:	83 c4 10             	add    $0x10,%esp
  1000bb:	83 ec 0c             	sub    $0xc,%esp
  1000be:	8d 83 48 f5 ff ff    	lea    -0xab8(%ebx),%eax
  1000c4:	50                   	push   %eax
  1000c5:	e8 01 0e 00 00       	call   100ecb <printf>
  1000ca:	83 c4 10             	add    $0x10,%esp
  1000cd:	e9 c9 03 00 00       	jmp    10049b <main+0x49b>
  1000d2:	0f b6 85 58 ff ff ff 	movzbl -0xa8(%ebp),%eax
  1000d9:	3c 2f                	cmp    $0x2f,%al
  1000db:	74 51                	je     10012e <main+0x12e>
  1000dd:	0f b6 85 58 ff ff ff 	movzbl -0xa8(%ebp),%eax
  1000e4:	3c 2e                	cmp    $0x2e,%al
  1000e6:	75 0b                	jne    1000f3 <main+0xf3>
  1000e8:	0f b6 85 59 ff ff ff 	movzbl -0xa7(%ebp),%eax
  1000ef:	3c 2f                	cmp    $0x2f,%al
  1000f1:	74 3b                	je     10012e <main+0x12e>
  1000f3:	83 ec 0c             	sub    $0xc,%esp
  1000f6:	8d 83 48 f5 ff ff    	lea    -0xab8(%ebx),%eax
  1000fc:	50                   	push   %eax
  1000fd:	e8 c9 0d 00 00       	call   100ecb <printf>
  100102:	83 c4 10             	add    $0x10,%esp
  100105:	83 ec 0c             	sub    $0xc,%esp
  100108:	8d 83 4a f5 ff ff    	lea    -0xab6(%ebx),%eax
  10010e:	50                   	push   %eax
  10010f:	e8 b7 0d 00 00       	call   100ecb <printf>
  100114:	83 c4 10             	add    $0x10,%esp
  100117:	83 ec 0c             	sub    $0xc,%esp
  10011a:	8d 83 48 f5 ff ff    	lea    -0xab8(%ebx),%eax
  100120:	50                   	push   %eax
  100121:	e8 a5 0d 00 00       	call   100ecb <printf>
  100126:	83 c4 10             	add    $0x10,%esp
  100129:	e9 6d 03 00 00       	jmp    10049b <main+0x49b>
  10012e:	0f b6 85 58 ff ff ff 	movzbl -0xa8(%ebp),%eax
  100135:	3c 2f                	cmp    $0x2f,%al
  100137:	75 09                	jne    100142 <main+0x142>
  100139:	c7 45 cc 01 00 00 00 	movl   $0x1,-0x34(%ebp)
  100140:	eb 1d                	jmp    10015f <main+0x15f>
  100142:	0f b6 85 58 ff ff ff 	movzbl -0xa8(%ebp),%eax
  100149:	3c 2e                	cmp    $0x2e,%al
  10014b:	75 12                	jne    10015f <main+0x15f>
  10014d:	0f b6 85 59 ff ff ff 	movzbl -0xa7(%ebp),%eax
  100154:	3c 2f                	cmp    $0x2f,%al
  100156:	75 07                	jne    10015f <main+0x15f>
  100158:	c7 45 cc 02 00 00 00 	movl   $0x2,-0x34(%ebp)
  10015f:	8b 45 c8             	mov    -0x38(%ebp),%eax
  100162:	83 e8 01             	sub    $0x1,%eax
  100165:	0f b6 84 05 58 ff ff 	movzbl -0xa8(%ebp,%eax,1),%eax
  10016c:	ff 
  10016d:	3c 2d                	cmp    $0x2d,%al
  10016f:	75 15                	jne    100186 <main+0x186>
  100171:	c7 45 e4 01 00 00 00 	movl   $0x1,-0x1c(%ebp)
  100178:	8b 45 c8             	mov    -0x38(%ebp),%eax
  10017b:	83 e8 01             	sub    $0x1,%eax
  10017e:	c6 84 05 58 ff ff ff 	movb   $0x0,-0xa8(%ebp,%eax,1)
  100185:	00 
  100186:	c7 45 e0 00 00 00 00 	movl   $0x0,-0x20(%ebp)
  10018d:	eb 1a                	jmp    1001a9 <main+0x1a9>
  10018f:	8d 95 58 ff ff ff    	lea    -0xa8(%ebp),%edx
  100195:	8b 45 e0             	mov    -0x20(%ebp),%eax
  100198:	01 d0                	add    %edx,%eax
  10019a:	0f b6 00             	movzbl (%eax),%eax
  10019d:	3c 20                	cmp    $0x20,%al
  10019f:	75 04                	jne    1001a5 <main+0x1a5>
  1001a1:	83 45 d4 01          	addl   $0x1,-0x2c(%ebp)
  1001a5:	83 45 e0 01          	addl   $0x1,-0x20(%ebp)
  1001a9:	8d 95 58 ff ff ff    	lea    -0xa8(%ebp),%edx
  1001af:	8b 45 e0             	mov    -0x20(%ebp),%eax
  1001b2:	01 d0                	add    %edx,%eax
  1001b4:	0f b6 00             	movzbl (%eax),%eax
  1001b7:	84 c0                	test   %al,%al
  1001b9:	75 d4                	jne    10018f <main+0x18f>
  1001bb:	83 ec 0c             	sub    $0xc,%esp
  1001be:	8d 83 5d f5 ff ff    	lea    -0xaa3(%ebx),%eax
  1001c4:	50                   	push   %eax
  1001c5:	e8 01 0d 00 00       	call   100ecb <printf>
  1001ca:	83 c4 10             	add    $0x10,%esp
  1001cd:	83 ec 08             	sub    $0x8,%esp
  1001d0:	ff 75 d4             	push   -0x2c(%ebp)
  1001d3:	8d 83 64 f5 ff ff    	lea    -0xa9c(%ebx),%eax
  1001d9:	50                   	push   %eax
  1001da:	e8 ec 0c 00 00       	call   100ecb <printf>
  1001df:	83 c4 10             	add    $0x10,%esp
  1001e2:	8b 45 d4             	mov    -0x2c(%ebp),%eax
  1001e5:	83 c0 02             	add    $0x2,%eax
  1001e8:	c1 e0 02             	shl    $0x2,%eax
  1001eb:	83 ec 0c             	sub    $0xc,%esp
  1001ee:	50                   	push   %eax
  1001ef:	e8 57 11 00 00       	call   10134b <malloc>
  1001f4:	83 c4 10             	add    $0x10,%esp
  1001f7:	89 45 d0             	mov    %eax,-0x30(%ebp)
  1001fa:	83 ec 0c             	sub    $0xc,%esp
  1001fd:	8d 83 71 f5 ff ff    	lea    -0xa8f(%ebx),%eax
  100203:	50                   	push   %eax
  100204:	e8 c2 0c 00 00       	call   100ecb <printf>
  100209:	83 c4 10             	add    $0x10,%esp
  10020c:	c7 45 e0 00 00 00 00 	movl   $0x0,-0x20(%ebp)
  100213:	c7 45 dc 00 00 00 00 	movl   $0x0,-0x24(%ebp)
  10021a:	eb 73                	jmp    10028f <main+0x28f>
  10021c:	83 ec 0c             	sub    $0xc,%esp
  10021f:	8d 83 48 f5 ff ff    	lea    -0xab8(%ebx),%eax
  100225:	50                   	push   %eax
  100226:	e8 a0 0c 00 00       	call   100ecb <printf>
  10022b:	83 c4 10             	add    $0x10,%esp
  10022e:	c7 45 d8 00 00 00 00 	movl   $0x0,-0x28(%ebp)
  100235:	eb 08                	jmp    10023f <main+0x23f>
  100237:	83 45 d8 01          	addl   $0x1,-0x28(%ebp)
  10023b:	83 45 e0 01          	addl   $0x1,-0x20(%ebp)
  10023f:	8d 95 58 ff ff ff    	lea    -0xa8(%ebp),%edx
  100245:	8b 45 e0             	mov    -0x20(%ebp),%eax
  100248:	01 d0                	add    %edx,%eax
  10024a:	0f b6 00             	movzbl (%eax),%eax
  10024d:	3c 20                	cmp    $0x20,%al
  10024f:	74 12                	je     100263 <main+0x263>
  100251:	8d 95 58 ff ff ff    	lea    -0xa8(%ebp),%edx
  100257:	8b 45 e0             	mov    -0x20(%ebp),%eax
  10025a:	01 d0                	add    %edx,%eax
  10025c:	0f b6 00             	movzbl (%eax),%eax
  10025f:	84 c0                	test   %al,%al
  100261:	75 d4                	jne    100237 <main+0x237>
  100263:	83 45 e0 01          	addl   $0x1,-0x20(%ebp)
  100267:	8b 45 d8             	mov    -0x28(%ebp),%eax
  10026a:	83 c0 01             	add    $0x1,%eax
  10026d:	8b 55 dc             	mov    -0x24(%ebp),%edx
  100270:	8d 0c 95 00 00 00 00 	lea    0x0(,%edx,4),%ecx
  100277:	8b 55 d0             	mov    -0x30(%ebp),%edx
  10027a:	8d 34 11             	lea    (%ecx,%edx,1),%esi
  10027d:	83 ec 0c             	sub    $0xc,%esp
  100280:	50                   	push   %eax
  100281:	e8 c5 10 00 00       	call   10134b <malloc>
  100286:	83 c4 10             	add    $0x10,%esp
  100289:	89 06                	mov    %eax,(%esi)
  10028b:	83 45 dc 01          	addl   $0x1,-0x24(%ebp)
  10028f:	8b 45 dc             	mov    -0x24(%ebp),%eax
  100292:	39 45 d4             	cmp    %eax,-0x2c(%ebp)
  100295:	73 85                	jae    10021c <main+0x21c>
  100297:	83 ec 0c             	sub    $0xc,%esp
  10029a:	8d 83 78 f5 ff ff    	lea    -0xa88(%ebx),%eax
  1002a0:	50                   	push   %eax
  1002a1:	e8 25 0c 00 00       	call   100ecb <printf>
  1002a6:	83 c4 10             	add    $0x10,%esp
  1002a9:	c7 45 e0 00 00 00 00 	movl   $0x0,-0x20(%ebp)
  1002b0:	c7 45 d8 00 00 00 00 	movl   $0x0,-0x28(%ebp)
  1002b7:	c7 45 dc 00 00 00 00 	movl   $0x0,-0x24(%ebp)
  1002be:	e9 82 00 00 00       	jmp    100345 <main+0x345>
  1002c3:	c7 45 d8 00 00 00 00 	movl   $0x0,-0x28(%ebp)
  1002ca:	eb 2e                	jmp    1002fa <main+0x2fa>
  1002cc:	8b 45 dc             	mov    -0x24(%ebp),%eax
  1002cf:	8d 14 85 00 00 00 00 	lea    0x0(,%eax,4),%edx
  1002d6:	8b 45 d0             	mov    -0x30(%ebp),%eax
  1002d9:	01 d0                	add    %edx,%eax
  1002db:	8b 10                	mov    (%eax),%edx
  1002dd:	8b 45 d8             	mov    -0x28(%ebp),%eax
  1002e0:	01 c2                	add    %eax,%edx
  1002e2:	8d 8d 58 ff ff ff    	lea    -0xa8(%ebp),%ecx
  1002e8:	8b 45 e0             	mov    -0x20(%ebp),%eax
  1002eb:	01 c8                	add    %ecx,%eax
  1002ed:	0f b6 00             	movzbl (%eax),%eax
  1002f0:	88 02                	mov    %al,(%edx)
  1002f2:	83 45 d8 01          	addl   $0x1,-0x28(%ebp)
  1002f6:	83 45 e0 01          	addl   $0x1,-0x20(%ebp)
  1002fa:	8d 95 58 ff ff ff    	lea    -0xa8(%ebp),%edx
  100300:	8b 45 e0             	mov    -0x20(%ebp),%eax
  100303:	01 d0                	add    %edx,%eax
  100305:	0f b6 00             	movzbl (%eax),%eax
  100308:	3c 20                	cmp    $0x20,%al
  10030a:	74 12                	je     10031e <main+0x31e>
  10030c:	8d 95 58 ff ff ff    	lea    -0xa8(%ebp),%edx
  100312:	8b 45 e0             	mov    -0x20(%ebp),%eax
  100315:	01 d0                	add    %edx,%eax
  100317:	0f b6 00             	movzbl (%eax),%eax
  10031a:	84 c0                	test   %al,%al
  10031c:	75 ae                	jne    1002cc <main+0x2cc>
  10031e:	83 45 e0 01          	addl   $0x1,-0x20(%ebp)
  100322:	8b 45 dc             	mov    -0x24(%ebp),%eax
  100325:	8d 14 85 00 00 00 00 	lea    0x0(,%eax,4),%edx
  10032c:	8b 45 d0             	mov    -0x30(%ebp),%eax
  10032f:	01 d0                	add    %edx,%eax
  100331:	8b 08                	mov    (%eax),%ecx
  100333:	8b 45 d8             	mov    -0x28(%ebp),%eax
  100336:	8d 50 01             	lea    0x1(%eax),%edx
  100339:	89 55 d8             	mov    %edx,-0x28(%ebp)
  10033c:	01 c8                	add    %ecx,%eax
  10033e:	c6 00 00             	movb   $0x0,(%eax)
  100341:	83 45 dc 01          	addl   $0x1,-0x24(%ebp)
  100345:	8b 45 dc             	mov    -0x24(%ebp),%eax
  100348:	39 45 d4             	cmp    %eax,-0x2c(%ebp)
  10034b:	0f 83 72 ff ff ff    	jae    1002c3 <main+0x2c3>
  100351:	83 ec 0c             	sub    $0xc,%esp
  100354:	8d 83 7f f5 ff ff    	lea    -0xa81(%ebx),%eax
  10035a:	50                   	push   %eax
  10035b:	e8 6b 0b 00 00       	call   100ecb <printf>
  100360:	83 c4 10             	add    $0x10,%esp
  100363:	8b 45 d4             	mov    -0x2c(%ebp),%eax
  100366:	83 c0 01             	add    $0x1,%eax
  100369:	8d 14 85 00 00 00 00 	lea    0x0(,%eax,4),%edx
  100370:	8b 45 d0             	mov    -0x30(%ebp),%eax
  100373:	01 d0                	add    %edx,%eax
  100375:	c7 00 00 00 00 00    	movl   $0x0,(%eax)
  10037b:	83 ec 0c             	sub    $0xc,%esp
  10037e:	8d 83 86 f5 ff ff    	lea    -0xa7a(%ebx),%eax
  100384:	50                   	push   %eax
  100385:	e8 41 0b 00 00       	call   100ecb <printf>
  10038a:	83 c4 10             	add    $0x10,%esp
  10038d:	e8 91 12 00 00       	call   101623 <fork>
  100392:	89 45 c4             	mov    %eax,-0x3c(%ebp)
  100395:	83 ec 0c             	sub    $0xc,%esp
  100398:	8d 83 8d f5 ff ff    	lea    -0xa73(%ebx),%eax
  10039e:	50                   	push   %eax
  10039f:	e8 27 0b 00 00       	call   100ecb <printf>
  1003a4:	83 c4 10             	add    $0x10,%esp
  1003a7:	83 7d c4 00          	cmpl   $0x0,-0x3c(%ebp)
  1003ab:	0f 85 96 00 00 00    	jne    100447 <main+0x447>
  1003b1:	e8 13 14 00 00       	call   1017c9 <getpid>
  1003b6:	0f b7 c0             	movzwl %ax,%eax
  1003b9:	89 45 c0             	mov    %eax,-0x40(%ebp)
  1003bc:	8b 55 c0             	mov    -0x40(%ebp),%edx
  1003bf:	8b 45 c0             	mov    -0x40(%ebp),%eax
  1003c2:	83 ec 08             	sub    $0x8,%esp
  1003c5:	52                   	push   %edx
  1003c6:	50                   	push   %eax
  1003c7:	e8 4b 14 00 00       	call   101817 <setpgid>
  1003cc:	83 c4 10             	add    $0x10,%esp
  1003cf:	8b 45 c0             	mov    -0x40(%ebp),%eax
  1003d2:	83 ec 0c             	sub    $0xc,%esp
  1003d5:	50                   	push   %eax
  1003d6:	e8 96 14 00 00       	call   101871 <tcsetpgrp>
  1003db:	83 c4 10             	add    $0x10,%esp
  1003de:	8b 45 d0             	mov    -0x30(%ebp),%eax
  1003e1:	8b 00                	mov    (%eax),%eax
  1003e3:	83 ec 08             	sub    $0x8,%esp
  1003e6:	ff 75 d0             	push   -0x30(%ebp)
  1003e9:	50                   	push   %eax
  1003ea:	e8 01 12 00 00       	call   1015f0 <exec>
  1003ef:	83 c4 10             	add    $0x10,%esp
  1003f2:	89 45 bc             	mov    %eax,-0x44(%ebp)
  1003f5:	83 7d bc ff          	cmpl   $0xffffffff,-0x44(%ebp)
  1003f9:	0f 85 54 fc ff ff    	jne    100053 <main+0x53>
  1003ff:	83 ec 0c             	sub    $0xc,%esp
  100402:	8d 83 48 f5 ff ff    	lea    -0xab8(%ebx),%eax
  100408:	50                   	push   %eax
  100409:	e8 bd 0a 00 00       	call   100ecb <printf>
  10040e:	83 c4 10             	add    $0x10,%esp
  100411:	83 ec 0c             	sub    $0xc,%esp
  100414:	8d 83 4a f5 ff ff    	lea    -0xab6(%ebx),%eax
  10041a:	50                   	push   %eax
  10041b:	e8 ab 0a 00 00       	call   100ecb <printf>
  100420:	83 c4 10             	add    $0x10,%esp
  100423:	83 ec 0c             	sub    $0xc,%esp
  100426:	8d 83 48 f5 ff ff    	lea    -0xab8(%ebx),%eax
  10042c:	50                   	push   %eax
  10042d:	e8 99 0a 00 00       	call   100ecb <printf>
  100432:	83 c4 10             	add    $0x10,%esp
  100435:	83 ec 0c             	sub    $0xc,%esp
  100438:	6a 00                	push   $0x0
  10043a:	e8 e1 0e 00 00       	call   101320 <exit>
  10043f:	83 c4 10             	add    $0x10,%esp
  100442:	e9 0c fc ff ff       	jmp    100053 <main+0x53>
  100447:	83 7d e4 00          	cmpl   $0x0,-0x1c(%ebp)
  10044b:	0f 85 02 fc ff ff    	jne    100053 <main+0x53>
  100451:	e8 11 12 00 00       	call   101667 <pause>
  100456:	e8 cf 00 00 00       	call   10052a <check_free_mem>
  10045b:	c7 45 dc 00 00 00 00 	movl   $0x0,-0x24(%ebp)
  100462:	eb 21                	jmp    100485 <main+0x485>
  100464:	8b 45 dc             	mov    -0x24(%ebp),%eax
  100467:	8d 14 85 00 00 00 00 	lea    0x0(,%eax,4),%edx
  10046e:	8b 45 d0             	mov    -0x30(%ebp),%eax
  100471:	01 d0                	add    %edx,%eax
  100473:	8b 00                	mov    (%eax),%eax
  100475:	83 ec 0c             	sub    $0xc,%esp
  100478:	50                   	push   %eax
  100479:	e8 f3 0e 00 00       	call   101371 <free>
  10047e:	83 c4 10             	add    $0x10,%esp
  100481:	83 45 dc 01          	addl   $0x1,-0x24(%ebp)
  100485:	8b 45 dc             	mov    -0x24(%ebp),%eax
  100488:	39 45 d4             	cmp    %eax,-0x2c(%ebp)
  10048b:	73 d7                	jae    100464 <main+0x464>
  10048d:	83 ec 0c             	sub    $0xc,%esp
  100490:	ff 75 d0             	push   -0x30(%ebp)
  100493:	e8 d9 0e 00 00       	call   101371 <free>
  100498:	83 c4 10             	add    $0x10,%esp
  10049b:	e9 b3 fb ff ff       	jmp    100053 <main+0x53>

001004a0 <cd>:
  1004a0:	55                   	push   %ebp
  1004a1:	89 e5                	mov    %esp,%ebp
  1004a3:	53                   	push   %ebx
  1004a4:	83 ec 14             	sub    $0x14,%esp
  1004a7:	e8 67 14 00 00       	call   101913 <__x86.get_pc_thunk.bx>
  1004ac:	81 c3 44 1f 00 00    	add    $0x1f44,%ebx
  1004b2:	83 ec 0c             	sub    $0xc,%esp
  1004b5:	ff 75 08             	push   0x8(%ebp)
  1004b8:	e8 a6 12 00 00       	call   101763 <chdir>
  1004bd:	83 c4 10             	add    $0x10,%esp
  1004c0:	89 45 f4             	mov    %eax,-0xc(%ebp)
  1004c3:	83 7d f4 ff          	cmpl   $0xffffffff,-0xc(%ebp)
  1004c7:	75 36                	jne    1004ff <cd+0x5f>
  1004c9:	83 ec 0c             	sub    $0xc,%esp
  1004cc:	8d 83 48 f5 ff ff    	lea    -0xab8(%ebx),%eax
  1004d2:	50                   	push   %eax
  1004d3:	e8 f3 09 00 00       	call   100ecb <printf>
  1004d8:	83 c4 10             	add    $0x10,%esp
  1004db:	83 ec 0c             	sub    $0xc,%esp
  1004de:	8d 83 94 f5 ff ff    	lea    -0xa6c(%ebx),%eax
  1004e4:	50                   	push   %eax
  1004e5:	e8 e1 09 00 00       	call   100ecb <printf>
  1004ea:	83 c4 10             	add    $0x10,%esp
  1004ed:	83 ec 0c             	sub    $0xc,%esp
  1004f0:	8d 83 48 f5 ff ff    	lea    -0xab8(%ebx),%eax
  1004f6:	50                   	push   %eax
  1004f7:	e8 cf 09 00 00       	call   100ecb <printf>
  1004fc:	83 c4 10             	add    $0x10,%esp
  1004ff:	90                   	nop
  100500:	8b 5d fc             	mov    -0x4(%ebp),%ebx
  100503:	c9                   	leave
  100504:	c3                   	ret

00100505 <panic>:
  100505:	55                   	push   %ebp
  100506:	89 e5                	mov    %esp,%ebp
  100508:	53                   	push   %ebx
  100509:	83 ec 10             	sub    $0x10,%esp
  10050c:	e8 06 14 00 00       	call   101917 <__x86.get_pc_thunk.ax>
  100511:	05 df 1e 00 00       	add    $0x1edf,%eax
  100516:	bb 68 00 00 00       	mov    $0x68,%ebx
  10051b:	8d 55 f8             	lea    -0x8(%ebp),%edx
  10051e:	89 d8                	mov    %ebx,%eax
  100520:	89 d1                	mov    %edx,%ecx
  100522:	cd 80                	int    $0x80
  100524:	90                   	nop
  100525:	8b 5d fc             	mov    -0x4(%ebp),%ebx
  100528:	c9                   	leave
  100529:	c3                   	ret

0010052a <check_free_mem>:
  10052a:	55                   	push   %ebp
  10052b:	89 e5                	mov    %esp,%ebp
  10052d:	53                   	push   %ebx
  10052e:	83 ec 10             	sub    $0x10,%esp
  100531:	e8 e1 13 00 00       	call   101917 <__x86.get_pc_thunk.ax>
  100536:	05 ba 1e 00 00       	add    $0x1eba,%eax
  10053b:	bb 67 00 00 00       	mov    $0x67,%ebx
  100540:	8d 55 f8             	lea    -0x8(%ebp),%edx
  100543:	89 d8                	mov    %ebx,%eax
  100545:	89 d1                	mov    %edx,%ecx
  100547:	cd 80                	int    $0x80
  100549:	90                   	nop
  10054a:	8b 5d fc             	mov    -0x4(%ebp),%ebx
  10054d:	c9                   	leave
  10054e:	c3                   	ret

0010054f <check_free_pid>:
  10054f:	55                   	push   %ebp
  100550:	89 e5                	mov    %esp,%ebp
  100552:	53                   	push   %ebx
  100553:	83 ec 10             	sub    $0x10,%esp
  100556:	e8 bc 13 00 00       	call   101917 <__x86.get_pc_thunk.ax>
  10055b:	05 95 1e 00 00       	add    $0x1e95,%eax
  100560:	bb 67 00 00 00       	mov    $0x67,%ebx
  100565:	8d 55 f8             	lea    -0x8(%ebp),%edx
  100568:	89 d8                	mov    %ebx,%eax
  10056a:	89 d1                	mov    %edx,%ecx
  10056c:	cd 80                	int    $0x80
  10056e:	90                   	nop
  10056f:	8b 5d fc             	mov    -0x4(%ebp),%ebx
  100572:	c9                   	leave
  100573:	c3                   	ret

00100574 <open>:
  100574:	55                   	push   %ebp
  100575:	89 e5                	mov    %esp,%ebp
  100577:	53                   	push   %ebx
  100578:	83 ec 10             	sub    $0x10,%esp
  10057b:	e8 97 13 00 00       	call   101917 <__x86.get_pc_thunk.ax>
  100580:	05 70 1e 00 00       	add    $0x1e70,%eax
  100585:	8b 45 08             	mov    0x8(%ebp),%eax
  100588:	89 45 f0             	mov    %eax,-0x10(%ebp)
  10058b:	8b 45 0c             	mov    0xc(%ebp),%eax
  10058e:	89 45 f4             	mov    %eax,-0xc(%ebp)
  100591:	bb 12 00 00 00       	mov    $0x12,%ebx
  100596:	8d 55 f0             	lea    -0x10(%ebp),%edx
  100599:	89 d8                	mov    %ebx,%eax
  10059b:	89 d1                	mov    %edx,%ecx
  10059d:	cd 80                	int    $0x80
  10059f:	8b 45 f8             	mov    -0x8(%ebp),%eax
  1005a2:	8b 5d fc             	mov    -0x4(%ebp),%ebx
  1005a5:	c9                   	leave
  1005a6:	c3                   	ret

001005a7 <flush_inode_cache>:
  1005a7:	55                   	push   %ebp
  1005a8:	89 e5                	mov    %esp,%ebp
  1005aa:	53                   	push   %ebx
  1005ab:	83 ec 10             	sub    $0x10,%esp
  1005ae:	e8 64 13 00 00       	call   101917 <__x86.get_pc_thunk.ax>
  1005b3:	05 3d 1e 00 00       	add    $0x1e3d,%eax
  1005b8:	bb c8 00 00 00       	mov    $0xc8,%ebx
  1005bd:	8d 55 f8             	lea    -0x8(%ebp),%edx
  1005c0:	89 d8                	mov    %ebx,%eax
  1005c2:	89 d1                	mov    %edx,%ecx
  1005c4:	cd 80                	int    $0x80
  1005c6:	90                   	nop
  1005c7:	8b 5d fc             	mov    -0x4(%ebp),%ebx
  1005ca:	c9                   	leave
  1005cb:	c3                   	ret

001005cc <a_usr_space_init>:
  1005cc:	55                   	push   %ebp
  1005cd:	89 e5                	mov    %esp,%ebp
  1005cf:	83 ec 20             	sub    $0x20,%esp
  1005d2:	e8 40 13 00 00       	call   101917 <__x86.get_pc_thunk.ax>
  1005d7:	05 19 1e 00 00       	add    $0x1e19,%eax
  1005dc:	8b 45 14             	mov    0x14(%ebp),%eax
  1005df:	8b 55 0c             	mov    0xc(%ebp),%edx
  1005e2:	8d 4a 08             	lea    0x8(%edx),%ecx
  1005e5:	ba 00 00 00 00       	mov    $0x0,%edx
  1005ea:	f7 f1                	div    %ecx
  1005ec:	89 45 f0             	mov    %eax,-0x10(%ebp)
  1005ef:	8b 45 08             	mov    0x8(%ebp),%eax
  1005f2:	8b 55 10             	mov    0x10(%ebp),%edx
  1005f5:	89 10                	mov    %edx,(%eax)
  1005f7:	8b 45 08             	mov    0x8(%ebp),%eax
  1005fa:	8b 00                	mov    (%eax),%eax
  1005fc:	89 45 ec             	mov    %eax,-0x14(%ebp)
  1005ff:	8b 45 08             	mov    0x8(%ebp),%eax
  100602:	c7 40 04 01 00 00 00 	movl   $0x1,0x4(%eax)
  100609:	8b 45 08             	mov    0x8(%ebp),%eax
  10060c:	8b 55 0c             	mov    0xc(%ebp),%edx
  10060f:	89 50 08             	mov    %edx,0x8(%eax)
  100612:	8b 45 08             	mov    0x8(%ebp),%eax
  100615:	8b 55 f0             	mov    -0x10(%ebp),%edx
  100618:	89 50 0c             	mov    %edx,0xc(%eax)
  10061b:	c7 45 f4 00 00 00 00 	movl   $0x0,-0xc(%ebp)
  100622:	8b 45 08             	mov    0x8(%ebp),%eax
  100625:	8b 00                	mov    (%eax),%eax
  100627:	89 45 f8             	mov    %eax,-0x8(%ebp)
  10062a:	c7 45 fc 01 00 00 00 	movl   $0x1,-0x4(%ebp)
  100631:	eb 32                	jmp    100665 <a_usr_space_init+0x99>
  100633:	8b 45 08             	mov    0x8(%ebp),%eax
  100636:	8b 40 08             	mov    0x8(%eax),%eax
  100639:	8d 50 08             	lea    0x8(%eax),%edx
  10063c:	8b 45 f8             	mov    -0x8(%ebp),%eax
  10063f:	01 d0                	add    %edx,%eax
  100641:	89 45 e8             	mov    %eax,-0x18(%ebp)
  100644:	8b 45 f8             	mov    -0x8(%ebp),%eax
  100647:	8b 55 e8             	mov    -0x18(%ebp),%edx
  10064a:	89 50 04             	mov    %edx,0x4(%eax)
  10064d:	8b 45 f8             	mov    -0x8(%ebp),%eax
  100650:	8b 55 f4             	mov    -0xc(%ebp),%edx
  100653:	89 10                	mov    %edx,(%eax)
  100655:	8b 45 f8             	mov    -0x8(%ebp),%eax
  100658:	89 45 f4             	mov    %eax,-0xc(%ebp)
  10065b:	8b 45 e8             	mov    -0x18(%ebp),%eax
  10065e:	89 45 f8             	mov    %eax,-0x8(%ebp)
  100661:	83 45 fc 01          	addl   $0x1,-0x4(%ebp)
  100665:	8b 45 fc             	mov    -0x4(%ebp),%eax
  100668:	3b 45 f0             	cmp    -0x10(%ebp),%eax
  10066b:	72 c6                	jb     100633 <a_usr_space_init+0x67>
  10066d:	8b 45 f8             	mov    -0x8(%ebp),%eax
  100670:	8b 55 ec             	mov    -0x14(%ebp),%edx
  100673:	89 50 04             	mov    %edx,0x4(%eax)
  100676:	8b 45 f8             	mov    -0x8(%ebp),%eax
  100679:	8b 55 f4             	mov    -0xc(%ebp),%edx
  10067c:	89 10                	mov    %edx,(%eax)
  10067e:	8b 45 ec             	mov    -0x14(%ebp),%eax
  100681:	8b 55 f8             	mov    -0x8(%ebp),%edx
  100684:	89 10                	mov    %edx,(%eax)
  100686:	90                   	nop
  100687:	c9                   	leave
  100688:	c3                   	ret

00100689 <a_usr_space_alloc>:
  100689:	55                   	push   %ebp
  10068a:	89 e5                	mov    %esp,%ebp
  10068c:	83 ec 10             	sub    $0x10,%esp
  10068f:	e8 83 12 00 00       	call   101917 <__x86.get_pc_thunk.ax>
  100694:	05 5c 1d 00 00       	add    $0x1d5c,%eax
  100699:	8b 45 08             	mov    0x8(%ebp),%eax
  10069c:	8b 00                	mov    (%eax),%eax
  10069e:	89 45 fc             	mov    %eax,-0x4(%ebp)
  1006a1:	8b 45 fc             	mov    -0x4(%ebp),%eax
  1006a4:	8b 40 04             	mov    0x4(%eax),%eax
  1006a7:	89 45 f8             	mov    %eax,-0x8(%ebp)
  1006aa:	83 7d f8 00          	cmpl   $0x0,-0x8(%ebp)
  1006ae:	74 09                	je     1006b9 <a_usr_space_alloc+0x30>
  1006b0:	8b 45 f8             	mov    -0x8(%ebp),%eax
  1006b3:	c7 00 00 00 00 00    	movl   $0x0,(%eax)
  1006b9:	8b 45 08             	mov    0x8(%ebp),%eax
  1006bc:	8b 55 f8             	mov    -0x8(%ebp),%edx
  1006bf:	89 10                	mov    %edx,(%eax)
  1006c1:	8b 45 fc             	mov    -0x4(%ebp),%eax
  1006c4:	83 c0 08             	add    $0x8,%eax
  1006c7:	89 45 f4             	mov    %eax,-0xc(%ebp)
  1006ca:	8b 45 08             	mov    0x8(%ebp),%eax
  1006cd:	8b 40 0c             	mov    0xc(%eax),%eax
  1006d0:	8d 50 ff             	lea    -0x1(%eax),%edx
  1006d3:	8b 45 08             	mov    0x8(%ebp),%eax
  1006d6:	89 50 0c             	mov    %edx,0xc(%eax)
  1006d9:	8b 45 f4             	mov    -0xc(%ebp),%eax
  1006dc:	c9                   	leave
  1006dd:	c3                   	ret

001006de <a_usr_space_free>:
  1006de:	55                   	push   %ebp
  1006df:	89 e5                	mov    %esp,%ebp
  1006e1:	83 ec 10             	sub    $0x10,%esp
  1006e4:	e8 2e 12 00 00       	call   101917 <__x86.get_pc_thunk.ax>
  1006e9:	05 07 1d 00 00       	add    $0x1d07,%eax
  1006ee:	8b 45 0c             	mov    0xc(%ebp),%eax
  1006f1:	83 e8 08             	sub    $0x8,%eax
  1006f4:	89 45 fc             	mov    %eax,-0x4(%ebp)
  1006f7:	8b 45 08             	mov    0x8(%ebp),%eax
  1006fa:	8b 40 0c             	mov    0xc(%eax),%eax
  1006fd:	8d 50 01             	lea    0x1(%eax),%edx
  100700:	8b 45 08             	mov    0x8(%ebp),%eax
  100703:	89 50 0c             	mov    %edx,0xc(%eax)
  100706:	8b 45 0c             	mov    0xc(%ebp),%eax
  100709:	83 e8 08             	sub    $0x8,%eax
  10070c:	89 45 f8             	mov    %eax,-0x8(%ebp)
  10070f:	8b 45 08             	mov    0x8(%ebp),%eax
  100712:	8b 00                	mov    (%eax),%eax
  100714:	89 45 f4             	mov    %eax,-0xc(%ebp)
  100717:	8b 45 08             	mov    0x8(%ebp),%eax
  10071a:	8b 55 f8             	mov    -0x8(%ebp),%edx
  10071d:	89 10                	mov    %edx,(%eax)
  10071f:	8b 45 f8             	mov    -0x8(%ebp),%eax
  100722:	8b 55 f4             	mov    -0xc(%ebp),%edx
  100725:	89 50 04             	mov    %edx,0x4(%eax)
  100728:	8b 45 f8             	mov    -0x8(%ebp),%eax
  10072b:	c7 00 00 00 00 00    	movl   $0x0,(%eax)
  100731:	8b 45 f4             	mov    -0xc(%ebp),%eax
  100734:	8b 55 f8             	mov    -0x8(%ebp),%edx
  100737:	89 10                	mov    %edx,(%eax)
  100739:	90                   	nop
  10073a:	c9                   	leave
  10073b:	c3                   	ret

0010073c <init_malloc>:
  10073c:	55                   	push   %ebp
  10073d:	89 e5                	mov    %esp,%ebp
  10073f:	53                   	push   %ebx
  100740:	83 ec 14             	sub    $0x14,%esp
  100743:	e8 cb 11 00 00       	call   101913 <__x86.get_pc_thunk.bx>
  100748:	81 c3 a8 1c 00 00    	add    $0x1ca8,%ebx
  10074e:	83 ec 0c             	sub    $0xc,%esp
  100751:	8d 83 a4 f5 ff ff    	lea    -0xa5c(%ebx),%eax
  100757:	50                   	push   %eax
  100758:	e8 6e 07 00 00       	call   100ecb <printf>
  10075d:	83 c4 10             	add    $0x10,%esp
  100760:	c7 45 f0 00 00 fe 3f 	movl   $0x3ffe0000,-0x10(%ebp)
  100767:	c7 45 f4 00 00 00 00 	movl   $0x0,-0xc(%ebp)
  10076e:	eb 41                	jmp    1007b1 <init_malloc+0x75>
  100770:	81 45 f0 00 00 02 00 	addl   $0x20000,-0x10(%ebp)
  100777:	8b 45 f4             	mov    -0xc(%ebp),%eax
  10077a:	83 c0 02             	add    $0x2,%eax
  10077d:	83 ec 0c             	sub    $0xc,%esp
  100780:	50                   	push   %eax
  100781:	e8 52 02 00 00       	call   1009d8 <pow2>
  100786:	83 c4 10             	add    $0x10,%esp
  100789:	89 c1                	mov    %eax,%ecx
  10078b:	8b 45 f4             	mov    -0xc(%ebp),%eax
  10078e:	c1 e0 04             	shl    $0x4,%eax
  100791:	89 c2                	mov    %eax,%edx
  100793:	8d 83 10 00 00 00    	lea    0x10(%ebx),%eax
  100799:	01 d0                	add    %edx,%eax
  10079b:	68 00 00 02 00       	push   $0x20000
  1007a0:	ff 75 f0             	push   -0x10(%ebp)
  1007a3:	51                   	push   %ecx
  1007a4:	50                   	push   %eax
  1007a5:	e8 22 fe ff ff       	call   1005cc <a_usr_space_init>
  1007aa:	83 c4 10             	add    $0x10,%esp
  1007ad:	83 45 f4 01          	addl   $0x1,-0xc(%ebp)
  1007b1:	83 7d f4 0f          	cmpl   $0xf,-0xc(%ebp)
  1007b5:	76 b9                	jbe    100770 <init_malloc+0x34>
  1007b7:	90                   	nop
  1007b8:	90                   	nop
  1007b9:	8b 5d fc             	mov    -0x4(%ebp),%ebx
  1007bc:	c9                   	leave
  1007bd:	c3                   	ret

001007be <_malloc>:
  1007be:	55                   	push   %ebp
  1007bf:	89 e5                	mov    %esp,%ebp
  1007c1:	53                   	push   %ebx
  1007c2:	83 ec 14             	sub    $0x14,%esp
  1007c5:	e8 49 11 00 00       	call   101913 <__x86.get_pc_thunk.bx>
  1007ca:	81 c3 26 1c 00 00    	add    $0x1c26,%ebx
  1007d0:	c7 45 f0 00 00 00 00 	movl   $0x0,-0x10(%ebp)
  1007d7:	83 ec 08             	sub    $0x8,%esp
  1007da:	ff 75 08             	push   0x8(%ebp)
  1007dd:	8d 83 b9 f5 ff ff    	lea    -0xa47(%ebx),%eax
  1007e3:	50                   	push   %eax
  1007e4:	e8 e2 06 00 00       	call   100ecb <printf>
  1007e9:	83 c4 10             	add    $0x10,%esp
  1007ec:	c7 45 f4 00 00 00 00 	movl   $0x0,-0xc(%ebp)
  1007f3:	eb 1b                	jmp    100810 <_malloc+0x52>
  1007f5:	8b 45 f4             	mov    -0xc(%ebp),%eax
  1007f8:	83 c0 02             	add    $0x2,%eax
  1007fb:	83 ec 0c             	sub    $0xc,%esp
  1007fe:	50                   	push   %eax
  1007ff:	e8 d4 01 00 00       	call   1009d8 <pow2>
  100804:	83 c4 10             	add    $0x10,%esp
  100807:	3b 45 08             	cmp    0x8(%ebp),%eax
  10080a:	73 0c                	jae    100818 <_malloc+0x5a>
  10080c:	83 45 f4 01          	addl   $0x1,-0xc(%ebp)
  100810:	83 7d f4 0f          	cmpl   $0xf,-0xc(%ebp)
  100814:	7e df                	jle    1007f5 <_malloc+0x37>
  100816:	eb 01                	jmp    100819 <_malloc+0x5b>
  100818:	90                   	nop
  100819:	83 ec 08             	sub    $0x8,%esp
  10081c:	ff 75 f4             	push   -0xc(%ebp)
  10081f:	8d 83 c8 f5 ff ff    	lea    -0xa38(%ebx),%eax
  100825:	50                   	push   %eax
  100826:	e8 a0 06 00 00       	call   100ecb <printf>
  10082b:	83 c4 10             	add    $0x10,%esp
  10082e:	83 7d f4 10          	cmpl   $0x10,-0xc(%ebp)
  100832:	0f 84 13 01 00 00    	je     10094b <_malloc+0x18d>
  100838:	83 ec 08             	sub    $0x8,%esp
  10083b:	ff 75 f4             	push   -0xc(%ebp)
  10083e:	8d 83 d2 f5 ff ff    	lea    -0xa2e(%ebx),%eax
  100844:	50                   	push   %eax
  100845:	e8 81 06 00 00       	call   100ecb <printf>
  10084a:	83 c4 10             	add    $0x10,%esp
  10084d:	8b 83 f8 ff ff ff    	mov    -0x8(%ebx),%eax
  100853:	83 f8 ff             	cmp    $0xffffffff,%eax
  100856:	75 38                	jne    100890 <_malloc+0xd2>
  100858:	83 ec 08             	sub    $0x8,%esp
  10085b:	ff 75 f4             	push   -0xc(%ebp)
  10085e:	8d 83 df f5 ff ff    	lea    -0xa21(%ebx),%eax
  100864:	50                   	push   %eax
  100865:	e8 61 06 00 00       	call   100ecb <printf>
  10086a:	83 c4 10             	add    $0x10,%esp
  10086d:	83 ec 0c             	sub    $0xc,%esp
  100870:	8d 83 eb f5 ff ff    	lea    -0xa15(%ebx),%eax
  100876:	50                   	push   %eax
  100877:	e8 4f 06 00 00       	call   100ecb <printf>
  10087c:	83 c4 10             	add    $0x10,%esp
  10087f:	e8 b8 fe ff ff       	call   10073c <init_malloc>
  100884:	c7 83 f8 ff ff ff 01 	movl   $0x1,-0x8(%ebx)
  10088b:	00 00 00 
  10088e:	eb 27                	jmp    1008b7 <_malloc+0xf9>
  100890:	83 ec 08             	sub    $0x8,%esp
  100893:	ff 75 f4             	push   -0xc(%ebp)
  100896:	8d 83 01 f6 ff ff    	lea    -0x9ff(%ebx),%eax
  10089c:	50                   	push   %eax
  10089d:	e8 29 06 00 00       	call   100ecb <printf>
  1008a2:	83 c4 10             	add    $0x10,%esp
  1008a5:	83 ec 0c             	sub    $0xc,%esp
  1008a8:	8d 83 0c f6 ff ff    	lea    -0x9f4(%ebx),%eax
  1008ae:	50                   	push   %eax
  1008af:	e8 17 06 00 00       	call   100ecb <printf>
  1008b4:	83 c4 10             	add    $0x10,%esp
  1008b7:	8b 55 f4             	mov    -0xc(%ebp),%edx
  1008ba:	8d 83 1c 00 00 00    	lea    0x1c(%ebx),%eax
  1008c0:	c1 e2 04             	shl    $0x4,%edx
  1008c3:	01 d0                	add    %edx,%eax
  1008c5:	8b 00                	mov    (%eax),%eax
  1008c7:	85 c0                	test   %eax,%eax
  1008c9:	75 4d                	jne    100918 <_malloc+0x15a>
  1008cb:	8b 55 f4             	mov    -0xc(%ebp),%edx
  1008ce:	8d 83 1c 00 00 00    	lea    0x1c(%ebx),%eax
  1008d4:	c1 e2 04             	shl    $0x4,%edx
  1008d7:	01 d0                	add    %edx,%eax
  1008d9:	8b 00                	mov    (%eax),%eax
  1008db:	83 ec 08             	sub    $0x8,%esp
  1008de:	50                   	push   %eax
  1008df:	8d 83 1e f6 ff ff    	lea    -0x9e2(%ebx),%eax
  1008e5:	50                   	push   %eax
  1008e6:	e8 e0 05 00 00       	call   100ecb <printf>
  1008eb:	83 c4 10             	add    $0x10,%esp
  1008ee:	83 ec 08             	sub    $0x8,%esp
  1008f1:	ff 75 f4             	push   -0xc(%ebp)
  1008f4:	8d 83 35 f6 ff ff    	lea    -0x9cb(%ebx),%eax
  1008fa:	50                   	push   %eax
  1008fb:	e8 cb 05 00 00       	call   100ecb <printf>
  100900:	83 c4 10             	add    $0x10,%esp
  100903:	83 ec 08             	sub    $0x8,%esp
  100906:	ff 75 08             	push   0x8(%ebp)
  100909:	8d 83 3e f6 ff ff    	lea    -0x9c2(%ebx),%eax
  10090f:	50                   	push   %eax
  100910:	e8 b6 05 00 00       	call   100ecb <printf>
  100915:	83 c4 10             	add    $0x10,%esp
  100918:	83 ec 0c             	sub    $0xc,%esp
  10091b:	8d 83 4c f6 ff ff    	lea    -0x9b4(%ebx),%eax
  100921:	50                   	push   %eax
  100922:	e8 a4 05 00 00       	call   100ecb <printf>
  100927:	83 c4 10             	add    $0x10,%esp
  10092a:	8b 45 f4             	mov    -0xc(%ebp),%eax
  10092d:	c1 e0 04             	shl    $0x4,%eax
  100930:	89 c2                	mov    %eax,%edx
  100932:	8d 83 10 00 00 00    	lea    0x10(%ebx),%eax
  100938:	01 d0                	add    %edx,%eax
  10093a:	83 ec 0c             	sub    $0xc,%esp
  10093d:	50                   	push   %eax
  10093e:	e8 46 fd ff ff       	call   100689 <a_usr_space_alloc>
  100943:	83 c4 10             	add    $0x10,%esp
  100946:	89 45 f0             	mov    %eax,-0x10(%ebp)
  100949:	eb 19                	jmp    100964 <_malloc+0x1a6>
  10094b:	83 ec 0c             	sub    $0xc,%esp
  10094e:	8d 83 56 f6 ff ff    	lea    -0x9aa(%ebx),%eax
  100954:	50                   	push   %eax
  100955:	e8 71 05 00 00       	call   100ecb <printf>
  10095a:	83 c4 10             	add    $0x10,%esp
  10095d:	c7 45 f0 ff ff ff ff 	movl   $0xffffffff,-0x10(%ebp)
  100964:	83 7d f0 ff          	cmpl   $0xffffffff,-0x10(%ebp)
  100968:	75 14                	jne    10097e <_malloc+0x1c0>
  10096a:	83 ec 0c             	sub    $0xc,%esp
  10096d:	8d 83 5f f6 ff ff    	lea    -0x9a1(%ebx),%eax
  100973:	50                   	push   %eax
  100974:	e8 52 05 00 00       	call   100ecb <printf>
  100979:	83 c4 10             	add    $0x10,%esp
  10097c:	eb fe                	jmp    10097c <_malloc+0x1be>
  10097e:	8b 45 f0             	mov    -0x10(%ebp),%eax
  100981:	8b 5d fc             	mov    -0x4(%ebp),%ebx
  100984:	c9                   	leave
  100985:	c3                   	ret

00100986 <_free>:
  100986:	55                   	push   %ebp
  100987:	89 e5                	mov    %esp,%ebp
  100989:	83 ec 10             	sub    $0x10,%esp
  10098c:	e8 86 0f 00 00       	call   101917 <__x86.get_pc_thunk.ax>
  100991:	05 5f 1a 00 00       	add    $0x1a5f,%eax
  100996:	c7 45 fc 00 00 00 00 	movl   $0x0,-0x4(%ebp)
  10099d:	eb 04                	jmp    1009a3 <_free+0x1d>
  10099f:	83 45 fc 01          	addl   $0x1,-0x4(%ebp)
  1009a3:	8b 55 fc             	mov    -0x4(%ebp),%edx
  1009a6:	83 c2 01             	add    $0x1,%edx
  1009a9:	c1 e2 11             	shl    $0x11,%edx
  1009ac:	89 d1                	mov    %edx,%ecx
  1009ae:	8b 55 08             	mov    0x8(%ebp),%edx
  1009b1:	81 ea 00 00 00 40    	sub    $0x40000000,%edx
  1009b7:	39 d1                	cmp    %edx,%ecx
  1009b9:	72 e4                	jb     10099f <_free+0x19>
  1009bb:	8b 55 fc             	mov    -0x4(%ebp),%edx
  1009be:	c1 e2 04             	shl    $0x4,%edx
  1009c1:	8d 80 10 00 00 00    	lea    0x10(%eax),%eax
  1009c7:	01 d0                	add    %edx,%eax
  1009c9:	ff 75 08             	push   0x8(%ebp)
  1009cc:	50                   	push   %eax
  1009cd:	e8 0c fd ff ff       	call   1006de <a_usr_space_free>
  1009d2:	83 c4 08             	add    $0x8,%esp
  1009d5:	90                   	nop
  1009d6:	c9                   	leave
  1009d7:	c3                   	ret

001009d8 <pow2>:
  1009d8:	55                   	push   %ebp
  1009d9:	89 e5                	mov    %esp,%ebp
  1009db:	83 ec 10             	sub    $0x10,%esp
  1009de:	e8 34 0f 00 00       	call   101917 <__x86.get_pc_thunk.ax>
  1009e3:	05 0d 1a 00 00       	add    $0x1a0d,%eax
  1009e8:	c7 45 fc 01 00 00 00 	movl   $0x1,-0x4(%ebp)
  1009ef:	8b 45 08             	mov    0x8(%ebp),%eax
  1009f2:	8b 55 fc             	mov    -0x4(%ebp),%edx
  1009f5:	89 c1                	mov    %eax,%ecx
  1009f7:	d3 e2                	shl    %cl,%edx
  1009f9:	89 d0                	mov    %edx,%eax
  1009fb:	c9                   	leave
  1009fc:	c3                   	ret

001009fd <log2>:
  1009fd:	55                   	push   %ebp
  1009fe:	89 e5                	mov    %esp,%ebp
  100a00:	83 ec 10             	sub    $0x10,%esp
  100a03:	e8 0f 0f 00 00       	call   101917 <__x86.get_pc_thunk.ax>
  100a08:	05 e8 19 00 00       	add    $0x19e8,%eax
  100a0d:	8b 45 08             	mov    0x8(%ebp),%eax
  100a10:	0f bc c0             	bsf    %eax,%eax
  100a13:	89 45 fc             	mov    %eax,-0x4(%ebp)
  100a16:	8b 45 fc             	mov    -0x4(%ebp),%eax
  100a19:	c9                   	leave
  100a1a:	c3                   	ret

00100a1b <socket>:
  100a1b:	55                   	push   %ebp
  100a1c:	89 e5                	mov    %esp,%ebp
  100a1e:	53                   	push   %ebx
  100a1f:	83 ec 10             	sub    $0x10,%esp
  100a22:	e8 f0 0e 00 00       	call   101917 <__x86.get_pc_thunk.ax>
  100a27:	05 c9 19 00 00       	add    $0x19c9,%eax
  100a2c:	8b 45 0c             	mov    0xc(%ebp),%eax
  100a2f:	89 45 f4             	mov    %eax,-0xc(%ebp)
  100a32:	bb 1c 00 00 00       	mov    $0x1c,%ebx
  100a37:	8d 55 f4             	lea    -0xc(%ebp),%edx
  100a3a:	89 d8                	mov    %ebx,%eax
  100a3c:	89 d1                	mov    %edx,%ecx
  100a3e:	cd 80                	int    $0x80
  100a40:	8b 45 f8             	mov    -0x8(%ebp),%eax
  100a43:	8b 5d fc             	mov    -0x4(%ebp),%ebx
  100a46:	c9                   	leave
  100a47:	c3                   	ret

00100a48 <bind>:
  100a48:	55                   	push   %ebp
  100a49:	89 e5                	mov    %esp,%ebp
  100a4b:	53                   	push   %ebx
  100a4c:	83 ec 20             	sub    $0x20,%esp
  100a4f:	e8 c3 0e 00 00       	call   101917 <__x86.get_pc_thunk.ax>
  100a54:	05 9c 19 00 00       	add    $0x199c,%eax
  100a59:	8b 45 0c             	mov    0xc(%ebp),%eax
  100a5c:	83 c0 02             	add    $0x2,%eax
  100a5f:	89 45 f8             	mov    %eax,-0x8(%ebp)
  100a62:	8b 45 08             	mov    0x8(%ebp),%eax
  100a65:	89 45 e8             	mov    %eax,-0x18(%ebp)
  100a68:	c7 45 ec 00 00 00 00 	movl   $0x0,-0x14(%ebp)
  100a6f:	8b 45 f8             	mov    -0x8(%ebp),%eax
  100a72:	0f b6 00             	movzbl (%eax),%eax
  100a75:	0f b6 c0             	movzbl %al,%eax
  100a78:	c1 e0 08             	shl    $0x8,%eax
  100a7b:	89 c2                	mov    %eax,%edx
  100a7d:	8b 45 f8             	mov    -0x8(%ebp),%eax
  100a80:	83 c0 01             	add    $0x1,%eax
  100a83:	0f b6 00             	movzbl (%eax),%eax
  100a86:	0f b6 c0             	movzbl %al,%eax
  100a89:	01 d0                	add    %edx,%eax
  100a8b:	89 45 f0             	mov    %eax,-0x10(%ebp)
  100a8e:	bb 1d 00 00 00       	mov    $0x1d,%ebx
  100a93:	8d 55 e8             	lea    -0x18(%ebp),%edx
  100a96:	89 d8                	mov    %ebx,%eax
  100a98:	89 d1                	mov    %edx,%ecx
  100a9a:	cd 80                	int    $0x80
  100a9c:	8b 45 f4             	mov    -0xc(%ebp),%eax
  100a9f:	8b 5d fc             	mov    -0x4(%ebp),%ebx
  100aa2:	c9                   	leave
  100aa3:	c3                   	ret

00100aa4 <listen>:
  100aa4:	55                   	push   %ebp
  100aa5:	89 e5                	mov    %esp,%ebp
  100aa7:	53                   	push   %ebx
  100aa8:	83 ec 10             	sub    $0x10,%esp
  100aab:	e8 67 0e 00 00       	call   101917 <__x86.get_pc_thunk.ax>
  100ab0:	05 40 19 00 00       	add    $0x1940,%eax
  100ab5:	8b 45 08             	mov    0x8(%ebp),%eax
  100ab8:	89 45 f4             	mov    %eax,-0xc(%ebp)
  100abb:	bb 21 00 00 00       	mov    $0x21,%ebx
  100ac0:	8d 55 f4             	lea    -0xc(%ebp),%edx
  100ac3:	89 d8                	mov    %ebx,%eax
  100ac5:	89 d1                	mov    %edx,%ecx
  100ac7:	cd 80                	int    $0x80
  100ac9:	8b 45 f8             	mov    -0x8(%ebp),%eax
  100acc:	8b 5d fc             	mov    -0x4(%ebp),%ebx
  100acf:	c9                   	leave
  100ad0:	c3                   	ret

00100ad1 <accept>:
  100ad1:	55                   	push   %ebp
  100ad2:	89 e5                	mov    %esp,%ebp
  100ad4:	53                   	push   %ebx
  100ad5:	83 ec 10             	sub    $0x10,%esp
  100ad8:	e8 3a 0e 00 00       	call   101917 <__x86.get_pc_thunk.ax>
  100add:	05 13 19 00 00       	add    $0x1913,%eax
  100ae2:	8b 45 08             	mov    0x8(%ebp),%eax
  100ae5:	89 45 ec             	mov    %eax,-0x14(%ebp)
  100ae8:	8b 45 0c             	mov    0xc(%ebp),%eax
  100aeb:	89 45 f0             	mov    %eax,-0x10(%ebp)
  100aee:	8b 45 10             	mov    0x10(%ebp),%eax
  100af1:	89 45 f4             	mov    %eax,-0xc(%ebp)
  100af4:	bb 22 00 00 00       	mov    $0x22,%ebx
  100af9:	8d 55 ec             	lea    -0x14(%ebp),%edx
  100afc:	89 d8                	mov    %ebx,%eax
  100afe:	89 d1                	mov    %edx,%ecx
  100b00:	cd 80                	int    $0x80
  100b02:	8b 45 f8             	mov    -0x8(%ebp),%eax
  100b05:	8b 5d fc             	mov    -0x4(%ebp),%ebx
  100b08:	c9                   	leave
  100b09:	c3                   	ret

00100b0a <recvfrom>:
  100b0a:	55                   	push   %ebp
  100b0b:	89 e5                	mov    %esp,%ebp
  100b0d:	53                   	push   %ebx
  100b0e:	83 ec 20             	sub    $0x20,%esp
  100b11:	e8 01 0e 00 00       	call   101917 <__x86.get_pc_thunk.ax>
  100b16:	05 da 18 00 00       	add    $0x18da,%eax
  100b1b:	8b 45 18             	mov    0x18(%ebp),%eax
  100b1e:	83 c0 04             	add    $0x4,%eax
  100b21:	89 45 f8             	mov    %eax,-0x8(%ebp)
  100b24:	8b 45 18             	mov    0x18(%ebp),%eax
  100b27:	83 c0 02             	add    $0x2,%eax
  100b2a:	89 45 f4             	mov    %eax,-0xc(%ebp)
  100b2d:	8b 45 08             	mov    0x8(%ebp),%eax
  100b30:	89 45 dc             	mov    %eax,-0x24(%ebp)
  100b33:	8b 45 f8             	mov    -0x8(%ebp),%eax
  100b36:	89 45 e0             	mov    %eax,-0x20(%ebp)
  100b39:	8b 45 f4             	mov    -0xc(%ebp),%eax
  100b3c:	89 45 e4             	mov    %eax,-0x1c(%ebp)
  100b3f:	8b 45 0c             	mov    0xc(%ebp),%eax
  100b42:	89 45 e8             	mov    %eax,-0x18(%ebp)
  100b45:	8b 45 10             	mov    0x10(%ebp),%eax
  100b48:	89 45 ec             	mov    %eax,-0x14(%ebp)
  100b4b:	bb 1e 00 00 00       	mov    $0x1e,%ebx
  100b50:	8d 55 dc             	lea    -0x24(%ebp),%edx
  100b53:	89 d8                	mov    %ebx,%eax
  100b55:	89 d1                	mov    %edx,%ecx
  100b57:	cd 80                	int    $0x80
  100b59:	8b 45 f0             	mov    -0x10(%ebp),%eax
  100b5c:	8b 5d fc             	mov    -0x4(%ebp),%ebx
  100b5f:	c9                   	leave
  100b60:	c3                   	ret

00100b61 <sendto>:
  100b61:	55                   	push   %ebp
  100b62:	89 e5                	mov    %esp,%ebp
  100b64:	53                   	push   %ebx
  100b65:	83 ec 20             	sub    $0x20,%esp
  100b68:	e8 aa 0d 00 00       	call   101917 <__x86.get_pc_thunk.ax>
  100b6d:	05 83 18 00 00       	add    $0x1883,%eax
  100b72:	8b 45 18             	mov    0x18(%ebp),%eax
  100b75:	83 c0 04             	add    $0x4,%eax
  100b78:	89 45 f8             	mov    %eax,-0x8(%ebp)
  100b7b:	8b 45 18             	mov    0x18(%ebp),%eax
  100b7e:	83 c0 02             	add    $0x2,%eax
  100b81:	89 45 f4             	mov    %eax,-0xc(%ebp)
  100b84:	8b 45 08             	mov    0x8(%ebp),%eax
  100b87:	89 45 dc             	mov    %eax,-0x24(%ebp)
  100b8a:	8b 45 f8             	mov    -0x8(%ebp),%eax
  100b8d:	0f b6 00             	movzbl (%eax),%eax
  100b90:	0f b6 c0             	movzbl %al,%eax
  100b93:	c1 e0 18             	shl    $0x18,%eax
  100b96:	89 c2                	mov    %eax,%edx
  100b98:	8b 45 f8             	mov    -0x8(%ebp),%eax
  100b9b:	83 c0 01             	add    $0x1,%eax
  100b9e:	0f b6 00             	movzbl (%eax),%eax
  100ba1:	0f b6 c0             	movzbl %al,%eax
  100ba4:	c1 e0 10             	shl    $0x10,%eax
  100ba7:	01 c2                	add    %eax,%edx
  100ba9:	8b 45 f8             	mov    -0x8(%ebp),%eax
  100bac:	83 c0 02             	add    $0x2,%eax
  100baf:	0f b6 00             	movzbl (%eax),%eax
  100bb2:	0f b6 c0             	movzbl %al,%eax
  100bb5:	c1 e0 08             	shl    $0x8,%eax
  100bb8:	01 c2                	add    %eax,%edx
  100bba:	8b 45 f8             	mov    -0x8(%ebp),%eax
  100bbd:	83 c0 03             	add    $0x3,%eax
  100bc0:	0f b6 00             	movzbl (%eax),%eax
  100bc3:	0f b6 c0             	movzbl %al,%eax
  100bc6:	01 d0                	add    %edx,%eax
  100bc8:	89 45 e0             	mov    %eax,-0x20(%ebp)
  100bcb:	8b 45 f4             	mov    -0xc(%ebp),%eax
  100bce:	0f b6 00             	movzbl (%eax),%eax
  100bd1:	0f b6 c0             	movzbl %al,%eax
  100bd4:	c1 e0 08             	shl    $0x8,%eax
  100bd7:	89 c2                	mov    %eax,%edx
  100bd9:	8b 45 f4             	mov    -0xc(%ebp),%eax
  100bdc:	83 c0 01             	add    $0x1,%eax
  100bdf:	0f b6 00             	movzbl (%eax),%eax
  100be2:	0f b6 c0             	movzbl %al,%eax
  100be5:	01 d0                	add    %edx,%eax
  100be7:	89 45 e4             	mov    %eax,-0x1c(%ebp)
  100bea:	8b 45 0c             	mov    0xc(%ebp),%eax
  100bed:	89 45 e8             	mov    %eax,-0x18(%ebp)
  100bf0:	8b 45 10             	mov    0x10(%ebp),%eax
  100bf3:	89 45 ec             	mov    %eax,-0x14(%ebp)
  100bf6:	bb 1f 00 00 00       	mov    $0x1f,%ebx
  100bfb:	8d 55 dc             	lea    -0x24(%ebp),%edx
  100bfe:	89 d8                	mov    %ebx,%eax
  100c00:	89 d1                	mov    %edx,%ecx
  100c02:	cd 80                	int    $0x80
  100c04:	8b 45 f0             	mov    -0x10(%ebp),%eax
  100c07:	8b 5d fc             	mov    -0x4(%ebp),%ebx
  100c0a:	c9                   	leave
  100c0b:	c3                   	ret

00100c0c <connect>:
  100c0c:	55                   	push   %ebp
  100c0d:	89 e5                	mov    %esp,%ebp
  100c0f:	53                   	push   %ebx
  100c10:	83 ec 20             	sub    $0x20,%esp
  100c13:	e8 ff 0c 00 00       	call   101917 <__x86.get_pc_thunk.ax>
  100c18:	05 d8 17 00 00       	add    $0x17d8,%eax
  100c1d:	8b 45 0c             	mov    0xc(%ebp),%eax
  100c20:	83 c0 04             	add    $0x4,%eax
  100c23:	89 45 f8             	mov    %eax,-0x8(%ebp)
  100c26:	8b 45 0c             	mov    0xc(%ebp),%eax
  100c29:	83 c0 02             	add    $0x2,%eax
  100c2c:	89 45 f4             	mov    %eax,-0xc(%ebp)
  100c2f:	8b 45 08             	mov    0x8(%ebp),%eax
  100c32:	89 45 e0             	mov    %eax,-0x20(%ebp)
  100c35:	8b 45 f8             	mov    -0x8(%ebp),%eax
  100c38:	0f b6 00             	movzbl (%eax),%eax
  100c3b:	0f b6 c0             	movzbl %al,%eax
  100c3e:	c1 e0 18             	shl    $0x18,%eax
  100c41:	89 c2                	mov    %eax,%edx
  100c43:	8b 45 f8             	mov    -0x8(%ebp),%eax
  100c46:	83 c0 01             	add    $0x1,%eax
  100c49:	0f b6 00             	movzbl (%eax),%eax
  100c4c:	0f b6 c0             	movzbl %al,%eax
  100c4f:	c1 e0 10             	shl    $0x10,%eax
  100c52:	01 c2                	add    %eax,%edx
  100c54:	8b 45 f8             	mov    -0x8(%ebp),%eax
  100c57:	83 c0 02             	add    $0x2,%eax
  100c5a:	0f b6 00             	movzbl (%eax),%eax
  100c5d:	0f b6 c0             	movzbl %al,%eax
  100c60:	c1 e0 08             	shl    $0x8,%eax
  100c63:	01 c2                	add    %eax,%edx
  100c65:	8b 45 f8             	mov    -0x8(%ebp),%eax
  100c68:	83 c0 03             	add    $0x3,%eax
  100c6b:	0f b6 00             	movzbl (%eax),%eax
  100c6e:	0f b6 c0             	movzbl %al,%eax
  100c71:	01 d0                	add    %edx,%eax
  100c73:	89 45 e4             	mov    %eax,-0x1c(%ebp)
  100c76:	8b 45 f4             	mov    -0xc(%ebp),%eax
  100c79:	0f b6 00             	movzbl (%eax),%eax
  100c7c:	0f b6 c0             	movzbl %al,%eax
  100c7f:	c1 e0 08             	shl    $0x8,%eax
  100c82:	89 c2                	mov    %eax,%edx
  100c84:	8b 45 f4             	mov    -0xc(%ebp),%eax
  100c87:	83 c0 01             	add    $0x1,%eax
  100c8a:	0f b6 00             	movzbl (%eax),%eax
  100c8d:	0f b6 c0             	movzbl %al,%eax
  100c90:	01 d0                	add    %edx,%eax
  100c92:	89 45 e8             	mov    %eax,-0x18(%ebp)
  100c95:	bb 23 00 00 00       	mov    $0x23,%ebx
  100c9a:	8d 55 e0             	lea    -0x20(%ebp),%edx
  100c9d:	89 d8                	mov    %ebx,%eax
  100c9f:	89 d1                	mov    %edx,%ecx
  100ca1:	cd 80                	int    $0x80
  100ca3:	8b 45 f0             	mov    -0x10(%ebp),%eax
  100ca6:	8b 5d fc             	mov    -0x4(%ebp),%ebx
  100ca9:	c9                   	leave
  100caa:	c3                   	ret

00100cab <write_socket>:
  100cab:	55                   	push   %ebp
  100cac:	89 e5                	mov    %esp,%ebp
  100cae:	53                   	push   %ebx
  100caf:	83 ec 20             	sub    $0x20,%esp
  100cb2:	e8 60 0c 00 00       	call   101917 <__x86.get_pc_thunk.ax>
  100cb7:	05 39 17 00 00       	add    $0x1739,%eax
  100cbc:	8b 45 08             	mov    0x8(%ebp),%eax
  100cbf:	89 45 e4             	mov    %eax,-0x1c(%ebp)
  100cc2:	c7 45 e8 00 00 00 00 	movl   $0x0,-0x18(%ebp)
  100cc9:	c7 45 ec 00 00 00 00 	movl   $0x0,-0x14(%ebp)
  100cd0:	8b 45 0c             	mov    0xc(%ebp),%eax
  100cd3:	89 45 f0             	mov    %eax,-0x10(%ebp)
  100cd6:	8b 45 10             	mov    0x10(%ebp),%eax
  100cd9:	89 45 f4             	mov    %eax,-0xc(%ebp)
  100cdc:	bb 1f 00 00 00       	mov    $0x1f,%ebx
  100ce1:	8d 55 e4             	lea    -0x1c(%ebp),%edx
  100ce4:	89 d8                	mov    %ebx,%eax
  100ce6:	89 d1                	mov    %edx,%ecx
  100ce8:	cd 80                	int    $0x80
  100cea:	8b 45 f8             	mov    -0x8(%ebp),%eax
  100ced:	8b 5d fc             	mov    -0x4(%ebp),%ebx
  100cf0:	c9                   	leave
  100cf1:	c3                   	ret

00100cf2 <read_socket>:
  100cf2:	55                   	push   %ebp
  100cf3:	89 e5                	mov    %esp,%ebp
  100cf5:	53                   	push   %ebx
  100cf6:	83 ec 20             	sub    $0x20,%esp
  100cf9:	e8 19 0c 00 00       	call   101917 <__x86.get_pc_thunk.ax>
  100cfe:	05 f2 16 00 00       	add    $0x16f2,%eax
  100d03:	8b 45 08             	mov    0x8(%ebp),%eax
  100d06:	89 45 e4             	mov    %eax,-0x1c(%ebp)
  100d09:	c7 45 e8 00 00 00 00 	movl   $0x0,-0x18(%ebp)
  100d10:	c7 45 ec 00 00 00 00 	movl   $0x0,-0x14(%ebp)
  100d17:	8b 45 0c             	mov    0xc(%ebp),%eax
  100d1a:	89 45 f0             	mov    %eax,-0x10(%ebp)
  100d1d:	8b 45 10             	mov    0x10(%ebp),%eax
  100d20:	89 45 f4             	mov    %eax,-0xc(%ebp)
  100d23:	bb 1e 00 00 00       	mov    $0x1e,%ebx
  100d28:	8d 55 e4             	lea    -0x1c(%ebp),%edx
  100d2b:	89 d8                	mov    %ebx,%eax
  100d2d:	89 d1                	mov    %edx,%ecx
  100d2f:	cd 80                	int    $0x80
  100d31:	8b 45 f8             	mov    -0x8(%ebp),%eax
  100d34:	8b 5d fc             	mov    -0x4(%ebp),%ebx
  100d37:	c9                   	leave
  100d38:	c3                   	ret

00100d39 <close_socket>:
  100d39:	55                   	push   %ebp
  100d3a:	89 e5                	mov    %esp,%ebp
  100d3c:	53                   	push   %ebx
  100d3d:	83 ec 10             	sub    $0x10,%esp
  100d40:	e8 d2 0b 00 00       	call   101917 <__x86.get_pc_thunk.ax>
  100d45:	05 ab 16 00 00       	add    $0x16ab,%eax
  100d4a:	8b 45 08             	mov    0x8(%ebp),%eax
  100d4d:	89 45 f8             	mov    %eax,-0x8(%ebp)
  100d50:	bb 20 00 00 00       	mov    $0x20,%ebx
  100d55:	8d 55 f8             	lea    -0x8(%ebp),%edx
  100d58:	89 d8                	mov    %ebx,%eax
  100d5a:	89 d1                	mov    %edx,%ecx
  100d5c:	cd 80                	int    $0x80
  100d5e:	8b 45 f8             	mov    -0x8(%ebp),%eax
  100d61:	8b 5d fc             	mov    -0x4(%ebp),%ebx
  100d64:	c9                   	leave
  100d65:	c3                   	ret

00100d66 <ping>:
  100d66:	55                   	push   %ebp
  100d67:	89 e5                	mov    %esp,%ebp
  100d69:	53                   	push   %ebx
  100d6a:	83 ec 18             	sub    $0x18,%esp
  100d6d:	e8 a5 0b 00 00       	call   101917 <__x86.get_pc_thunk.ax>
  100d72:	05 7e 16 00 00       	add    $0x167e,%eax
  100d77:	8b 55 0c             	mov    0xc(%ebp),%edx
  100d7a:	8b 45 10             	mov    0x10(%ebp),%eax
  100d7d:	66 89 55 e8          	mov    %dx,-0x18(%ebp)
  100d81:	66 89 45 e4          	mov    %ax,-0x1c(%ebp)
  100d85:	8b 45 08             	mov    0x8(%ebp),%eax
  100d88:	89 45 ec             	mov    %eax,-0x14(%ebp)
  100d8b:	0f b7 45 e8          	movzwl -0x18(%ebp),%eax
  100d8f:	89 45 f0             	mov    %eax,-0x10(%ebp)
  100d92:	0f b7 45 e4          	movzwl -0x1c(%ebp),%eax
  100d96:	89 45 f4             	mov    %eax,-0xc(%ebp)
  100d99:	bb 25 00 00 00       	mov    $0x25,%ebx
  100d9e:	8d 55 ec             	lea    -0x14(%ebp),%edx
  100da1:	89 d8                	mov    %ebx,%eax
  100da3:	89 d1                	mov    %edx,%ecx
  100da5:	cd 80                	int    $0x80
  100da7:	8b 45 f8             	mov    -0x8(%ebp),%eax
  100daa:	8b 5d fc             	mov    -0x4(%ebp),%ebx
  100dad:	c9                   	leave
  100dae:	c3                   	ret

00100daf <mkdir>:
  100daf:	55                   	push   %ebp
  100db0:	89 e5                	mov    %esp,%ebp
  100db2:	53                   	push   %ebx
  100db3:	83 ec 10             	sub    $0x10,%esp
  100db6:	e8 5c 0b 00 00       	call   101917 <__x86.get_pc_thunk.ax>
  100dbb:	05 35 16 00 00       	add    $0x1635,%eax
  100dc0:	8b 45 08             	mov    0x8(%ebp),%eax
  100dc3:	89 45 f8             	mov    %eax,-0x8(%ebp)
  100dc6:	bb 17 00 00 00       	mov    $0x17,%ebx
  100dcb:	8d 55 f8             	lea    -0x8(%ebp),%edx
  100dce:	89 d8                	mov    %ebx,%eax
  100dd0:	89 d1                	mov    %edx,%ecx
  100dd2:	cd 80                	int    $0x80
  100dd4:	8b 45 fc             	mov    -0x4(%ebp),%eax
  100dd7:	8b 5d fc             	mov    -0x4(%ebp),%ebx
  100dda:	c9                   	leave
  100ddb:	c3                   	ret

00100ddc <stat>:
  100ddc:	55                   	push   %ebp
  100ddd:	89 e5                	mov    %esp,%ebp
  100ddf:	53                   	push   %ebx
  100de0:	83 ec 10             	sub    $0x10,%esp
  100de3:	e8 2f 0b 00 00       	call   101917 <__x86.get_pc_thunk.ax>
  100de8:	05 08 16 00 00       	add    $0x1608,%eax
  100ded:	8b 45 08             	mov    0x8(%ebp),%eax
  100df0:	89 45 f0             	mov    %eax,-0x10(%ebp)
  100df3:	8b 45 0c             	mov    0xc(%ebp),%eax
  100df6:	89 45 f4             	mov    %eax,-0xc(%ebp)
  100df9:	bb 1b 00 00 00       	mov    $0x1b,%ebx
  100dfe:	8d 55 f0             	lea    -0x10(%ebp),%edx
  100e01:	89 d8                	mov    %ebx,%eax
  100e03:	89 d1                	mov    %edx,%ecx
  100e05:	cd 80                	int    $0x80
  100e07:	8b 45 f8             	mov    -0x8(%ebp),%eax
  100e0a:	8b 5d fc             	mov    -0x4(%ebp),%ebx
  100e0d:	c9                   	leave
  100e0e:	c3                   	ret

00100e0f <print_num>:
  100e0f:	55                   	push   %ebp
  100e10:	89 e5                	mov    %esp,%ebp
  100e12:	53                   	push   %ebx
  100e13:	83 ec 54             	sub    $0x54,%esp
  100e16:	e8 fc 0a 00 00       	call   101917 <__x86.get_pc_thunk.ax>
  100e1b:	05 d5 15 00 00       	add    $0x15d5,%eax
  100e20:	c7 45 f4 ff ff ff ff 	movl   $0xffffffff,-0xc(%ebp)
  100e27:	83 ec 04             	sub    $0x4,%esp
  100e2a:	6a 0a                	push   $0xa
  100e2c:	8d 55 b4             	lea    -0x4c(%ebp),%edx
  100e2f:	52                   	push   %edx
  100e30:	ff 75 08             	push   0x8(%ebp)
  100e33:	89 c3                	mov    %eax,%ebx
  100e35:	e8 24 04 00 00       	call   10125e <itoa>
  100e3a:	83 c4 10             	add    $0x10,%esp
  100e3d:	eb 1f                	jmp    100e5e <print_num+0x4f>
  100e3f:	8d 55 b4             	lea    -0x4c(%ebp),%edx
  100e42:	8b 45 f4             	mov    -0xc(%ebp),%eax
  100e45:	01 d0                	add    %edx,%eax
  100e47:	0f b6 00             	movzbl (%eax),%eax
  100e4a:	0f be c0             	movsbl %al,%eax
  100e4d:	89 45 b0             	mov    %eax,-0x50(%ebp)
  100e50:	bb 04 00 00 00       	mov    $0x4,%ebx
  100e55:	8d 55 b0             	lea    -0x50(%ebp),%edx
  100e58:	89 d8                	mov    %ebx,%eax
  100e5a:	89 d1                	mov    %edx,%ecx
  100e5c:	cd 80                	int    $0x80
  100e5e:	83 45 f4 01          	addl   $0x1,-0xc(%ebp)
  100e62:	8d 55 b4             	lea    -0x4c(%ebp),%edx
  100e65:	8b 45 f4             	mov    -0xc(%ebp),%eax
  100e68:	01 d0                	add    %edx,%eax
  100e6a:	0f b6 00             	movzbl (%eax),%eax
  100e6d:	84 c0                	test   %al,%al
  100e6f:	75 ce                	jne    100e3f <print_num+0x30>
  100e71:	90                   	nop
  100e72:	90                   	nop
  100e73:	8b 5d fc             	mov    -0x4(%ebp),%ebx
  100e76:	c9                   	leave
  100e77:	c3                   	ret

00100e78 <print_char>:
  100e78:	55                   	push   %ebp
  100e79:	89 e5                	mov    %esp,%ebp
  100e7b:	53                   	push   %ebx
  100e7c:	83 ec 10             	sub    $0x10,%esp
  100e7f:	e8 93 0a 00 00       	call   101917 <__x86.get_pc_thunk.ax>
  100e84:	05 6c 15 00 00       	add    $0x156c,%eax
  100e89:	c7 45 f8 ff ff ff ff 	movl   $0xffffffff,-0x8(%ebp)
  100e90:	eb 1f                	jmp    100eb1 <print_char+0x39>
  100e92:	8b 55 f8             	mov    -0x8(%ebp),%edx
  100e95:	8b 45 08             	mov    0x8(%ebp),%eax
  100e98:	01 d0                	add    %edx,%eax
  100e9a:	0f b6 00             	movzbl (%eax),%eax
  100e9d:	0f be c0             	movsbl %al,%eax
  100ea0:	89 45 f4             	mov    %eax,-0xc(%ebp)
  100ea3:	bb 04 00 00 00       	mov    $0x4,%ebx
  100ea8:	8d 55 f4             	lea    -0xc(%ebp),%edx
  100eab:	89 d8                	mov    %ebx,%eax
  100ead:	89 d1                	mov    %edx,%ecx
  100eaf:	cd 80                	int    $0x80
  100eb1:	83 45 f8 01          	addl   $0x1,-0x8(%ebp)
  100eb5:	8b 55 f8             	mov    -0x8(%ebp),%edx
  100eb8:	8b 45 08             	mov    0x8(%ebp),%eax
  100ebb:	01 d0                	add    %edx,%eax
  100ebd:	0f b6 00             	movzbl (%eax),%eax
  100ec0:	84 c0                	test   %al,%al
  100ec2:	75 ce                	jne    100e92 <print_char+0x1a>
  100ec4:	90                   	nop
  100ec5:	90                   	nop
  100ec6:	8b 5d fc             	mov    -0x4(%ebp),%ebx
  100ec9:	c9                   	leave
  100eca:	c3                   	ret

00100ecb <printf>:
  100ecb:	55                   	push   %ebp
  100ecc:	89 e5                	mov    %esp,%ebp
  100ece:	53                   	push   %ebx
  100ecf:	83 ec 24             	sub    $0x24,%esp
  100ed2:	e8 40 0a 00 00       	call   101917 <__x86.get_pc_thunk.ax>
  100ed7:	05 19 15 00 00       	add    $0x1519,%eax
  100edc:	c7 45 f4 ff ff ff ff 	movl   $0xffffffff,-0xc(%ebp)
  100ee3:	c7 45 f0 00 00 00 00 	movl   $0x0,-0x10(%ebp)
  100eea:	c7 45 ec 04 00 00 00 	movl   $0x4,-0x14(%ebp)
  100ef1:	e9 b7 00 00 00       	jmp    100fad <printf+0xe2>
  100ef6:	8b 55 f4             	mov    -0xc(%ebp),%edx
  100ef9:	8b 45 08             	mov    0x8(%ebp),%eax
  100efc:	01 d0                	add    %edx,%eax
  100efe:	0f b6 00             	movzbl (%eax),%eax
  100f01:	3c 25                	cmp    $0x25,%al
  100f03:	75 3e                	jne    100f43 <printf+0x78>
  100f05:	8b 45 f4             	mov    -0xc(%ebp),%eax
  100f08:	8d 50 01             	lea    0x1(%eax),%edx
  100f0b:	8b 45 08             	mov    0x8(%ebp),%eax
  100f0e:	01 d0                	add    %edx,%eax
  100f10:	0f b6 00             	movzbl (%eax),%eax
  100f13:	3c 64                	cmp    $0x64,%al
  100f15:	75 2c                	jne    100f43 <printf+0x78>
  100f17:	83 45 f4 02          	addl   $0x2,-0xc(%ebp)
  100f1b:	83 45 f0 01          	addl   $0x1,-0x10(%ebp)
  100f1f:	89 e8                	mov    %ebp,%eax
  100f21:	89 45 e8             	mov    %eax,-0x18(%ebp)
  100f24:	8b 45 f0             	mov    -0x10(%ebp),%eax
  100f27:	83 c0 02             	add    $0x2,%eax
  100f2a:	c1 e0 02             	shl    $0x2,%eax
  100f2d:	01 45 e8             	add    %eax,-0x18(%ebp)
  100f30:	8b 45 e8             	mov    -0x18(%ebp),%eax
  100f33:	8b 00                	mov    (%eax),%eax
  100f35:	83 ec 0c             	sub    $0xc,%esp
  100f38:	50                   	push   %eax
  100f39:	e8 d1 fe ff ff       	call   100e0f <print_num>
  100f3e:	83 c4 10             	add    $0x10,%esp
  100f41:	eb 4b                	jmp    100f8e <printf+0xc3>
  100f43:	8b 55 f4             	mov    -0xc(%ebp),%edx
  100f46:	8b 45 08             	mov    0x8(%ebp),%eax
  100f49:	01 d0                	add    %edx,%eax
  100f4b:	0f b6 00             	movzbl (%eax),%eax
  100f4e:	3c 25                	cmp    $0x25,%al
  100f50:	75 3c                	jne    100f8e <printf+0xc3>
  100f52:	8b 45 f4             	mov    -0xc(%ebp),%eax
  100f55:	8d 50 01             	lea    0x1(%eax),%edx
  100f58:	8b 45 08             	mov    0x8(%ebp),%eax
  100f5b:	01 d0                	add    %edx,%eax
  100f5d:	0f b6 00             	movzbl (%eax),%eax
  100f60:	3c 73                	cmp    $0x73,%al
  100f62:	75 2a                	jne    100f8e <printf+0xc3>
  100f64:	83 45 f4 02          	addl   $0x2,-0xc(%ebp)
  100f68:	83 45 f0 01          	addl   $0x1,-0x10(%ebp)
  100f6c:	89 e8                	mov    %ebp,%eax
  100f6e:	89 45 e8             	mov    %eax,-0x18(%ebp)
  100f71:	8b 45 f0             	mov    -0x10(%ebp),%eax
  100f74:	83 c0 02             	add    $0x2,%eax
  100f77:	c1 e0 02             	shl    $0x2,%eax
  100f7a:	01 45 e8             	add    %eax,-0x18(%ebp)
  100f7d:	8b 45 e8             	mov    -0x18(%ebp),%eax
  100f80:	8b 00                	mov    (%eax),%eax
  100f82:	83 ec 0c             	sub    $0xc,%esp
  100f85:	50                   	push   %eax
  100f86:	e8 ed fe ff ff       	call   100e78 <print_char>
  100f8b:	83 c4 10             	add    $0x10,%esp
  100f8e:	8b 55 f4             	mov    -0xc(%ebp),%edx
  100f91:	8b 45 08             	mov    0x8(%ebp),%eax
  100f94:	01 d0                	add    %edx,%eax
  100f96:	0f b6 00             	movzbl (%eax),%eax
  100f99:	0f be c0             	movsbl %al,%eax
  100f9c:	89 45 e4             	mov    %eax,-0x1c(%ebp)
  100f9f:	bb 04 00 00 00       	mov    $0x4,%ebx
  100fa4:	8d 55 e4             	lea    -0x1c(%ebp),%edx
  100fa7:	89 d8                	mov    %ebx,%eax
  100fa9:	89 d1                	mov    %edx,%ecx
  100fab:	cd 80                	int    $0x80
  100fad:	83 45 f4 01          	addl   $0x1,-0xc(%ebp)
  100fb1:	8b 55 f4             	mov    -0xc(%ebp),%edx
  100fb4:	8b 45 08             	mov    0x8(%ebp),%eax
  100fb7:	01 d0                	add    %edx,%eax
  100fb9:	0f b6 00             	movzbl (%eax),%eax
  100fbc:	84 c0                	test   %al,%al
  100fbe:	0f 85 32 ff ff ff    	jne    100ef6 <printf+0x2b>
  100fc4:	90                   	nop
  100fc5:	90                   	nop
  100fc6:	8b 5d fc             	mov    -0x4(%ebp),%ebx
  100fc9:	c9                   	leave
  100fca:	c3                   	ret

00100fcb <scanf>:
  100fcb:	55                   	push   %ebp
  100fcc:	89 e5                	mov    %esp,%ebp
  100fce:	56                   	push   %esi
  100fcf:	53                   	push   %ebx
  100fd0:	83 c4 80             	add    $0xffffff80,%esp
  100fd3:	e8 43 09 00 00       	call   10191b <__x86.get_pc_thunk.dx>
  100fd8:	81 c2 18 14 00 00    	add    $0x1418,%edx
  100fde:	c7 45 f4 00 00 00 00 	movl   $0x0,-0xc(%ebp)
  100fe5:	c7 45 f0 00 00 00 00 	movl   $0x0,-0x10(%ebp)
  100fec:	bb 07 00 00 00       	mov    $0x7,%ebx
  100ff1:	be 00 00 00 00       	mov    $0x0,%esi
  100ff6:	89 d8                	mov    %ebx,%eax
  100ff8:	89 f1                	mov    %esi,%ecx
  100ffa:	cd 80                	int    $0x80
  100ffc:	8d 45 ef             	lea    -0x11(%ebp),%eax
  100fff:	89 45 80             	mov    %eax,-0x80(%ebp)
  101002:	be 05 00 00 00       	mov    $0x5,%esi
  101007:	8d 5d 80             	lea    -0x80(%ebp),%ebx
  10100a:	89 f0                	mov    %esi,%eax
  10100c:	89 d9                	mov    %ebx,%ecx
  10100e:	cd 80                	int    $0x80
  101010:	0f b6 45 ef          	movzbl -0x11(%ebp),%eax
  101014:	3c 0d                	cmp    $0xd,%al
  101016:	74 65                	je     10107d <scanf+0xb2>
  101018:	0f b6 45 ef          	movzbl -0x11(%ebp),%eax
  10101c:	3c 08                	cmp    $0x8,%al
  10101e:	75 2c                	jne    10104c <scanf+0x81>
  101020:	83 7d f4 00          	cmpl   $0x0,-0xc(%ebp)
  101024:	74 26                	je     10104c <scanf+0x81>
  101026:	bb 0a 00 00 00       	mov    $0xa,%ebx
  10102b:	be 00 00 00 00       	mov    $0x0,%esi
  101030:	89 d8                	mov    %ebx,%eax
  101032:	89 f1                	mov    %esi,%ecx
  101034:	cd 80                	int    $0x80
  101036:	bb 09 00 00 00       	mov    $0x9,%ebx
  10103b:	be 00 00 00 00       	mov    $0x0,%esi
  101040:	89 d8                	mov    %ebx,%eax
  101042:	89 f1                	mov    %esi,%ecx
  101044:	cd 80                	int    $0x80
  101046:	83 6d f4 01          	subl   $0x1,-0xc(%ebp)
  10104a:	eb 31                	jmp    10107d <scanf+0xb2>
  10104c:	0f b6 45 ef          	movzbl -0x11(%ebp),%eax
  101050:	3c 08                	cmp    $0x8,%al
  101052:	74 29                	je     10107d <scanf+0xb2>
  101054:	8b 45 f4             	mov    -0xc(%ebp),%eax
  101057:	8d 48 01             	lea    0x1(%eax),%ecx
  10105a:	89 4d f4             	mov    %ecx,-0xc(%ebp)
  10105d:	0f b6 4d ef          	movzbl -0x11(%ebp),%ecx
  101061:	88 4c 05 8b          	mov    %cl,-0x75(%ebp,%eax,1)
  101065:	0f b6 45 ef          	movzbl -0x11(%ebp),%eax
  101069:	0f be c0             	movsbl %al,%eax
  10106c:	89 45 80             	mov    %eax,-0x80(%ebp)
  10106f:	be 06 00 00 00       	mov    $0x6,%esi
  101074:	8d 5d 80             	lea    -0x80(%ebp),%ebx
  101077:	89 f0                	mov    %esi,%eax
  101079:	89 d9                	mov    %ebx,%ecx
  10107b:	cd 80                	int    $0x80
  10107d:	0f b6 45 ef          	movzbl -0x11(%ebp),%eax
  101081:	3c 0d                	cmp    $0xd,%al
  101083:	0f 85 73 ff ff ff    	jne    100ffc <scanf+0x31>
  101089:	bb 08 00 00 00       	mov    $0x8,%ebx
  10108e:	be 00 00 00 00       	mov    $0x0,%esi
  101093:	89 d8                	mov    %ebx,%eax
  101095:	89 f1                	mov    %esi,%ecx
  101097:	cd 80                	int    $0x80
  101099:	8d 4d 8b             	lea    -0x75(%ebp),%ecx
  10109c:	8b 45 f4             	mov    -0xc(%ebp),%eax
  10109f:	01 c8                	add    %ecx,%eax
  1010a1:	c6 00 00             	movb   $0x0,(%eax)
  1010a4:	8b 45 08             	mov    0x8(%ebp),%eax
  1010a7:	0f b6 00             	movzbl (%eax),%eax
  1010aa:	3c 25                	cmp    $0x25,%al
  1010ac:	75 27                	jne    1010d5 <scanf+0x10a>
  1010ae:	8b 45 08             	mov    0x8(%ebp),%eax
  1010b1:	83 c0 01             	add    $0x1,%eax
  1010b4:	0f b6 00             	movzbl (%eax),%eax
  1010b7:	3c 64                	cmp    $0x64,%al
  1010b9:	75 1a                	jne    1010d5 <scanf+0x10a>
  1010bb:	83 ec 0c             	sub    $0xc,%esp
  1010be:	8d 45 8b             	lea    -0x75(%ebp),%eax
  1010c1:	50                   	push   %eax
  1010c2:	89 d3                	mov    %edx,%ebx
  1010c4:	e8 07 01 00 00       	call   1011d0 <atoi>
  1010c9:	83 c4 10             	add    $0x10,%esp
  1010cc:	89 c2                	mov    %eax,%edx
  1010ce:	8b 45 0c             	mov    0xc(%ebp),%eax
  1010d1:	89 10                	mov    %edx,(%eax)
  1010d3:	eb 2b                	jmp    101100 <scanf+0x135>
  1010d5:	c7 45 f0 00 00 00 00 	movl   $0x0,-0x10(%ebp)
  1010dc:	eb 19                	jmp    1010f7 <scanf+0x12c>
  1010de:	8b 55 0c             	mov    0xc(%ebp),%edx
  1010e1:	8b 45 f0             	mov    -0x10(%ebp),%eax
  1010e4:	01 c2                	add    %eax,%edx
  1010e6:	8d 4d 8b             	lea    -0x75(%ebp),%ecx
  1010e9:	8b 45 f0             	mov    -0x10(%ebp),%eax
  1010ec:	01 c8                	add    %ecx,%eax
  1010ee:	0f b6 00             	movzbl (%eax),%eax
  1010f1:	88 02                	mov    %al,(%edx)
  1010f3:	83 45 f0 01          	addl   $0x1,-0x10(%ebp)
  1010f7:	8b 45 f4             	mov    -0xc(%ebp),%eax
  1010fa:	3b 45 f0             	cmp    -0x10(%ebp),%eax
  1010fd:	73 df                	jae    1010de <scanf+0x113>
  1010ff:	90                   	nop
  101100:	90                   	nop
  101101:	8d 65 f8             	lea    -0x8(%ebp),%esp
  101104:	5b                   	pop    %ebx
  101105:	5e                   	pop    %esi
  101106:	5d                   	pop    %ebp
  101107:	c3                   	ret

00101108 <getc>:
  101108:	55                   	push   %ebp
  101109:	89 e5                	mov    %esp,%ebp
  10110b:	53                   	push   %ebx
  10110c:	83 ec 10             	sub    $0x10,%esp
  10110f:	e8 03 08 00 00       	call   101917 <__x86.get_pc_thunk.ax>
  101114:	05 dc 12 00 00       	add    $0x12dc,%eax
  101119:	ba 07 00 00 00       	mov    $0x7,%edx
  10111e:	bb 00 00 00 00       	mov    $0x0,%ebx
  101123:	89 d0                	mov    %edx,%eax
  101125:	89 d9                	mov    %ebx,%ecx
  101127:	cd 80                	int    $0x80
  101129:	8d 45 fb             	lea    -0x5(%ebp),%eax
  10112c:	89 45 f4             	mov    %eax,-0xc(%ebp)
  10112f:	bb 05 00 00 00       	mov    $0x5,%ebx
  101134:	8d 55 f4             	lea    -0xc(%ebp),%edx
  101137:	89 d8                	mov    %ebx,%eax
  101139:	89 d1                	mov    %edx,%ecx
  10113b:	cd 80                	int    $0x80
  10113d:	0f b6 45 fb          	movzbl -0x5(%ebp),%eax
  101141:	3c 08                	cmp    $0x8,%al
  101143:	75 22                	jne    101167 <getc+0x5f>
  101145:	ba 0a 00 00 00       	mov    $0xa,%edx
  10114a:	bb 00 00 00 00       	mov    $0x0,%ebx
  10114f:	89 d0                	mov    %edx,%eax
  101151:	89 d9                	mov    %ebx,%ecx
  101153:	cd 80                	int    $0x80
  101155:	ba 09 00 00 00       	mov    $0x9,%edx
  10115a:	bb 00 00 00 00       	mov    $0x0,%ebx
  10115f:	89 d0                	mov    %edx,%eax
  101161:	89 d9                	mov    %ebx,%ecx
  101163:	cd 80                	int    $0x80
  101165:	eb 20                	jmp    101187 <getc+0x7f>
  101167:	0f b6 45 fb          	movzbl -0x5(%ebp),%eax
  10116b:	3c 0d                	cmp    $0xd,%al
  10116d:	74 18                	je     101187 <getc+0x7f>
  10116f:	0f b6 45 fb          	movzbl -0x5(%ebp),%eax
  101173:	0f be c0             	movsbl %al,%eax
  101176:	89 45 f4             	mov    %eax,-0xc(%ebp)
  101179:	bb 06 00 00 00       	mov    $0x6,%ebx
  10117e:	8d 55 f4             	lea    -0xc(%ebp),%edx
  101181:	89 d8                	mov    %ebx,%eax
  101183:	89 d1                	mov    %edx,%ecx
  101185:	cd 80                	int    $0x80
  101187:	ba 08 00 00 00       	mov    $0x8,%edx
  10118c:	bb 00 00 00 00       	mov    $0x0,%ebx
  101191:	89 d0                	mov    %edx,%eax
  101193:	89 d9                	mov    %ebx,%ecx
  101195:	cd 80                	int    $0x80
  101197:	0f b6 45 fb          	movzbl -0x5(%ebp),%eax
  10119b:	0f be c0             	movsbl %al,%eax
  10119e:	8b 5d fc             	mov    -0x4(%ebp),%ebx
  1011a1:	c9                   	leave
  1011a2:	c3                   	ret

001011a3 <remove>:
  1011a3:	55                   	push   %ebp
  1011a4:	89 e5                	mov    %esp,%ebp
  1011a6:	53                   	push   %ebx
  1011a7:	83 ec 10             	sub    $0x10,%esp
  1011aa:	e8 68 07 00 00       	call   101917 <__x86.get_pc_thunk.ax>
  1011af:	05 41 12 00 00       	add    $0x1241,%eax
  1011b4:	8b 45 08             	mov    0x8(%ebp),%eax
  1011b7:	89 45 f4             	mov    %eax,-0xc(%ebp)
  1011ba:	bb 16 00 00 00       	mov    $0x16,%ebx
  1011bf:	8d 55 f4             	lea    -0xc(%ebp),%edx
  1011c2:	89 d8                	mov    %ebx,%eax
  1011c4:	89 d1                	mov    %edx,%ecx
  1011c6:	cd 80                	int    $0x80
  1011c8:	8b 45 f8             	mov    -0x8(%ebp),%eax
  1011cb:	8b 5d fc             	mov    -0x4(%ebp),%ebx
  1011ce:	c9                   	leave
  1011cf:	c3                   	ret

001011d0 <atoi>:
  1011d0:	55                   	push   %ebp
  1011d1:	89 e5                	mov    %esp,%ebp
  1011d3:	83 ec 20             	sub    $0x20,%esp
  1011d6:	e8 3c 07 00 00       	call   101917 <__x86.get_pc_thunk.ax>
  1011db:	05 15 12 00 00       	add    $0x1215,%eax
  1011e0:	c7 45 f4 00 00 00 00 	movl   $0x0,-0xc(%ebp)
  1011e7:	c7 45 f0 01 00 00 00 	movl   $0x1,-0x10(%ebp)
  1011ee:	c7 45 fc 00 00 00 00 	movl   $0x0,-0x4(%ebp)
  1011f5:	c7 45 ec 00 00 00 00 	movl   $0x0,-0x14(%ebp)
  1011fc:	8b 45 08             	mov    0x8(%ebp),%eax
  1011ff:	0f b6 00             	movzbl (%eax),%eax
  101202:	3c 2d                	cmp    $0x2d,%al
  101204:	75 0b                	jne    101211 <atoi+0x41>
  101206:	c7 45 f0 ff ff ff ff 	movl   $0xffffffff,-0x10(%ebp)
  10120d:	83 45 08 01          	addl   $0x1,0x8(%ebp)
  101211:	8b 45 08             	mov    0x8(%ebp),%eax
  101214:	0f b6 00             	movzbl (%eax),%eax
  101217:	0f b6 c0             	movzbl %al,%eax
  10121a:	83 e8 30             	sub    $0x30,%eax
  10121d:	01 45 fc             	add    %eax,-0x4(%ebp)
  101220:	eb 29                	jmp    10124b <atoi+0x7b>
  101222:	8b 55 fc             	mov    -0x4(%ebp),%edx
  101225:	89 d0                	mov    %edx,%eax
  101227:	c1 e0 02             	shl    $0x2,%eax
  10122a:	01 d0                	add    %edx,%eax
  10122c:	01 c0                	add    %eax,%eax
  10122e:	89 c2                	mov    %eax,%edx
  101230:	8b 45 08             	mov    0x8(%ebp),%eax
  101233:	0f b6 00             	movzbl (%eax),%eax
  101236:	0f b6 c0             	movzbl %al,%eax
  101239:	83 e8 30             	sub    $0x30,%eax
  10123c:	01 d0                	add    %edx,%eax
  10123e:	89 45 fc             	mov    %eax,-0x4(%ebp)
  101241:	0f b6 45 fb          	movzbl -0x5(%ebp),%eax
  101245:	83 c0 01             	add    $0x1,%eax
  101248:	88 45 fb             	mov    %al,-0x5(%ebp)
  10124b:	83 45 08 01          	addl   $0x1,0x8(%ebp)
  10124f:	8b 45 08             	mov    0x8(%ebp),%eax
  101252:	0f b6 00             	movzbl (%eax),%eax
  101255:	84 c0                	test   %al,%al
  101257:	75 c9                	jne    101222 <atoi+0x52>
  101259:	8b 45 fc             	mov    -0x4(%ebp),%eax
  10125c:	c9                   	leave
  10125d:	c3                   	ret

0010125e <itoa>:
  10125e:	55                   	push   %ebp
  10125f:	89 e5                	mov    %esp,%ebp
  101261:	83 ec 40             	sub    $0x40,%esp
  101264:	e8 ae 06 00 00       	call   101917 <__x86.get_pc_thunk.ax>
  101269:	05 87 11 00 00       	add    $0x1187,%eax
  10126e:	c7 45 f8 ff ff ff ff 	movl   $0xffffffff,-0x8(%ebp)
  101275:	8b 45 08             	mov    0x8(%ebp),%eax
  101278:	89 45 fc             	mov    %eax,-0x4(%ebp)
  10127b:	8b 45 fc             	mov    -0x4(%ebp),%eax
  10127e:	89 45 08             	mov    %eax,0x8(%ebp)
  101281:	8b 4d 08             	mov    0x8(%ebp),%ecx
  101284:	ba cd cc cc cc       	mov    $0xcccccccd,%edx
  101289:	89 c8                	mov    %ecx,%eax
  10128b:	f7 e2                	mul    %edx
  10128d:	c1 ea 03             	shr    $0x3,%edx
  101290:	89 d0                	mov    %edx,%eax
  101292:	c1 e0 02             	shl    $0x2,%eax
  101295:	01 d0                	add    %edx,%eax
  101297:	01 c0                	add    %eax,%eax
  101299:	29 c1                	sub    %eax,%ecx
  10129b:	89 ca                	mov    %ecx,%edx
  10129d:	89 55 ec             	mov    %edx,-0x14(%ebp)
  1012a0:	8b 45 08             	mov    0x8(%ebp),%eax
  1012a3:	ba cd cc cc cc       	mov    $0xcccccccd,%edx
  1012a8:	f7 e2                	mul    %edx
  1012aa:	89 d0                	mov    %edx,%eax
  1012ac:	c1 e8 03             	shr    $0x3,%eax
  1012af:	89 45 fc             	mov    %eax,-0x4(%ebp)
  1012b2:	83 7d fc 00          	cmpl   $0x0,-0x4(%ebp)
  1012b6:	75 0b                	jne    1012c3 <itoa+0x65>
  1012b8:	8b 45 08             	mov    0x8(%ebp),%eax
  1012bb:	83 c0 30             	add    $0x30,%eax
  1012be:	88 45 f3             	mov    %al,-0xd(%ebp)
  1012c1:	eb 09                	jmp    1012cc <itoa+0x6e>
  1012c3:	8b 45 ec             	mov    -0x14(%ebp),%eax
  1012c6:	83 c0 30             	add    $0x30,%eax
  1012c9:	88 45 f3             	mov    %al,-0xd(%ebp)
  1012cc:	83 45 f8 01          	addl   $0x1,-0x8(%ebp)
  1012d0:	8d 55 cc             	lea    -0x34(%ebp),%edx
  1012d3:	8b 45 f8             	mov    -0x8(%ebp),%eax
  1012d6:	01 c2                	add    %eax,%edx
  1012d8:	0f b6 45 f3          	movzbl -0xd(%ebp),%eax
  1012dc:	88 02                	mov    %al,(%edx)
  1012de:	83 7d fc 00          	cmpl   $0x0,-0x4(%ebp)
  1012e2:	75 97                	jne    10127b <itoa+0x1d>
  1012e4:	c7 45 f4 00 00 00 00 	movl   $0x0,-0xc(%ebp)
  1012eb:	eb 19                	jmp    101306 <itoa+0xa8>
  1012ed:	8b 45 f8             	mov    -0x8(%ebp),%eax
  1012f0:	2b 45 f4             	sub    -0xc(%ebp),%eax
  1012f3:	8b 4d 0c             	mov    0xc(%ebp),%ecx
  1012f6:	8b 55 f4             	mov    -0xc(%ebp),%edx
  1012f9:	01 ca                	add    %ecx,%edx
  1012fb:	0f b6 44 05 cc       	movzbl -0x34(%ebp,%eax,1),%eax
  101300:	88 02                	mov    %al,(%edx)
  101302:	83 45 f4 01          	addl   $0x1,-0xc(%ebp)
  101306:	8b 45 f4             	mov    -0xc(%ebp),%eax
  101309:	39 45 f8             	cmp    %eax,-0x8(%ebp)
  10130c:	73 df                	jae    1012ed <itoa+0x8f>
  10130e:	83 45 f8 01          	addl   $0x1,-0x8(%ebp)
  101312:	8b 55 0c             	mov    0xc(%ebp),%edx
  101315:	8b 45 f8             	mov    -0x8(%ebp),%eax
  101318:	01 d0                	add    %edx,%eax
  10131a:	c6 00 00             	movb   $0x0,(%eax)
  10131d:	90                   	nop
  10131e:	c9                   	leave
  10131f:	c3                   	ret

00101320 <exit>:
  101320:	55                   	push   %ebp
  101321:	89 e5                	mov    %esp,%ebp
  101323:	53                   	push   %ebx
  101324:	83 ec 10             	sub    $0x10,%esp
  101327:	e8 eb 05 00 00       	call   101917 <__x86.get_pc_thunk.ax>
  10132c:	05 c4 10 00 00       	add    $0x10c4,%eax
  101331:	8b 45 08             	mov    0x8(%ebp),%eax
  101334:	89 45 f8             	mov    %eax,-0x8(%ebp)
  101337:	bb 0d 00 00 00       	mov    $0xd,%ebx
  10133c:	8d 55 f8             	lea    -0x8(%ebp),%edx
  10133f:	89 d8                	mov    %ebx,%eax
  101341:	89 d1                	mov    %edx,%ecx
  101343:	cd 80                	int    $0x80
  101345:	90                   	nop
  101346:	8b 5d fc             	mov    -0x4(%ebp),%ebx
  101349:	c9                   	leave
  10134a:	c3                   	ret

0010134b <malloc>:
  10134b:	55                   	push   %ebp
  10134c:	89 e5                	mov    %esp,%ebp
  10134e:	53                   	push   %ebx
  10134f:	83 ec 04             	sub    $0x4,%esp
  101352:	e8 c0 05 00 00       	call   101917 <__x86.get_pc_thunk.ax>
  101357:	05 99 10 00 00       	add    $0x1099,%eax
  10135c:	83 ec 0c             	sub    $0xc,%esp
  10135f:	ff 75 08             	push   0x8(%ebp)
  101362:	89 c3                	mov    %eax,%ebx
  101364:	e8 55 f4 ff ff       	call   1007be <_malloc>
  101369:	83 c4 10             	add    $0x10,%esp
  10136c:	8b 5d fc             	mov    -0x4(%ebp),%ebx
  10136f:	c9                   	leave
  101370:	c3                   	ret

00101371 <free>:
  101371:	55                   	push   %ebp
  101372:	89 e5                	mov    %esp,%ebp
  101374:	53                   	push   %ebx
  101375:	83 ec 04             	sub    $0x4,%esp
  101378:	e8 9a 05 00 00       	call   101917 <__x86.get_pc_thunk.ax>
  10137d:	05 73 10 00 00       	add    $0x1073,%eax
  101382:	83 ec 0c             	sub    $0xc,%esp
  101385:	ff 75 08             	push   0x8(%ebp)
  101388:	89 c3                	mov    %eax,%ebx
  10138a:	e8 f7 f5 ff ff       	call   100986 <_free>
  10138f:	83 c4 10             	add    $0x10,%esp
  101392:	90                   	nop
  101393:	8b 5d fc             	mov    -0x4(%ebp),%ebx
  101396:	c9                   	leave
  101397:	c3                   	ret

00101398 <rand>:
  101398:	55                   	push   %ebp
  101399:	89 e5                	mov    %esp,%ebp
  10139b:	e8 77 05 00 00       	call   101917 <__x86.get_pc_thunk.ax>
  1013a0:	05 50 10 00 00       	add    $0x1050,%eax
  1013a5:	8b 90 fc ff ff ff    	mov    -0x4(%eax),%edx
  1013ab:	69 d2 6d 4e c6 41    	imul   $0x41c64e6d,%edx,%edx
  1013b1:	81 c2 39 30 00 00    	add    $0x3039,%edx
  1013b7:	89 90 fc ff ff ff    	mov    %edx,-0x4(%eax)
  1013bd:	8b 90 fc ff ff ff    	mov    -0x4(%eax),%edx
  1013c3:	83 fa ff             	cmp    $0xffffffff,%edx
  1013c6:	0f 93 c0             	setae  %al
  1013c9:	0f b6 c0             	movzbl %al,%eax
  1013cc:	f7 d8                	neg    %eax
  1013ce:	89 c1                	mov    %eax,%ecx
  1013d0:	89 d0                	mov    %edx,%eax
  1013d2:	29 c8                	sub    %ecx,%eax
  1013d4:	5d                   	pop    %ebp
  1013d5:	c3                   	ret

001013d6 <strcmp>:
  1013d6:	55                   	push   %ebp
  1013d7:	89 e5                	mov    %esp,%ebp
  1013d9:	83 ec 10             	sub    $0x10,%esp
  1013dc:	e8 36 05 00 00       	call   101917 <__x86.get_pc_thunk.ax>
  1013e1:	05 0f 10 00 00       	add    $0x100f,%eax
  1013e6:	8b 45 08             	mov    0x8(%ebp),%eax
  1013e9:	8d 50 01             	lea    0x1(%eax),%edx
  1013ec:	89 55 08             	mov    %edx,0x8(%ebp)
  1013ef:	0f b6 00             	movzbl (%eax),%eax
  1013f2:	0f b6 c0             	movzbl %al,%eax
  1013f5:	89 45 fc             	mov    %eax,-0x4(%ebp)
  1013f8:	8b 45 0c             	mov    0xc(%ebp),%eax
  1013fb:	8d 50 01             	lea    0x1(%eax),%edx
  1013fe:	89 55 0c             	mov    %edx,0xc(%ebp)
  101401:	0f b6 00             	movzbl (%eax),%eax
  101404:	0f b6 c0             	movzbl %al,%eax
  101407:	89 45 f8             	mov    %eax,-0x8(%ebp)
  10140a:	83 7d fc 00          	cmpl   $0x0,-0x4(%ebp)
  10140e:	75 08                	jne    101418 <strcmp+0x42>
  101410:	8b 45 fc             	mov    -0x4(%ebp),%eax
  101413:	2b 45 f8             	sub    -0x8(%ebp),%eax
  101416:	eb 0e                	jmp    101426 <strcmp+0x50>
  101418:	8b 45 fc             	mov    -0x4(%ebp),%eax
  10141b:	3b 45 f8             	cmp    -0x8(%ebp),%eax
  10141e:	74 c6                	je     1013e6 <strcmp+0x10>
  101420:	8b 45 fc             	mov    -0x4(%ebp),%eax
  101423:	2b 45 f8             	sub    -0x8(%ebp),%eax
  101426:	c9                   	leave
  101427:	c3                   	ret

00101428 <strncmp>:
  101428:	55                   	push   %ebp
  101429:	89 e5                	mov    %esp,%ebp
  10142b:	83 ec 10             	sub    $0x10,%esp
  10142e:	e8 e4 04 00 00       	call   101917 <__x86.get_pc_thunk.ax>
  101433:	05 bd 0f 00 00       	add    $0xfbd,%eax
  101438:	eb 3e                	jmp    101478 <strncmp+0x50>
  10143a:	8b 45 08             	mov    0x8(%ebp),%eax
  10143d:	8d 50 01             	lea    0x1(%eax),%edx
  101440:	89 55 08             	mov    %edx,0x8(%ebp)
  101443:	0f b6 00             	movzbl (%eax),%eax
  101446:	0f b6 c0             	movzbl %al,%eax
  101449:	89 45 fc             	mov    %eax,-0x4(%ebp)
  10144c:	8b 45 0c             	mov    0xc(%ebp),%eax
  10144f:	8d 50 01             	lea    0x1(%eax),%edx
  101452:	89 55 0c             	mov    %edx,0xc(%ebp)
  101455:	0f b6 00             	movzbl (%eax),%eax
  101458:	0f b6 c0             	movzbl %al,%eax
  10145b:	89 45 f8             	mov    %eax,-0x8(%ebp)
  10145e:	83 7d fc 00          	cmpl   $0x0,-0x4(%ebp)
  101462:	74 08                	je     10146c <strncmp+0x44>
  101464:	8b 45 fc             	mov    -0x4(%ebp),%eax
  101467:	3b 45 f8             	cmp    -0x8(%ebp),%eax
  10146a:	74 08                	je     101474 <strncmp+0x4c>
  10146c:	8b 45 fc             	mov    -0x4(%ebp),%eax
  10146f:	2b 45 f8             	sub    -0x8(%ebp),%eax
  101472:	eb 10                	jmp    101484 <strncmp+0x5c>
  101474:	83 6d 10 01          	subl   $0x1,0x10(%ebp)
  101478:	83 7d 10 00          	cmpl   $0x0,0x10(%ebp)
  10147c:	75 bc                	jne    10143a <strncmp+0x12>
  10147e:	8b 45 fc             	mov    -0x4(%ebp),%eax
  101481:	2b 45 f8             	sub    -0x8(%ebp),%eax
  101484:	c9                   	leave
  101485:	c3                   	ret

00101486 <strlen>:
  101486:	55                   	push   %ebp
  101487:	89 e5                	mov    %esp,%ebp
  101489:	83 ec 10             	sub    $0x10,%esp
  10148c:	e8 86 04 00 00       	call   101917 <__x86.get_pc_thunk.ax>
  101491:	05 5f 0f 00 00       	add    $0xf5f,%eax
  101496:	c7 45 fc 00 00 00 00 	movl   $0x0,-0x4(%ebp)
  10149d:	eb 04                	jmp    1014a3 <strlen+0x1d>
  10149f:	83 45 fc 01          	addl   $0x1,-0x4(%ebp)
  1014a3:	8b 45 08             	mov    0x8(%ebp),%eax
  1014a6:	8d 50 01             	lea    0x1(%eax),%edx
  1014a9:	89 55 08             	mov    %edx,0x8(%ebp)
  1014ac:	0f b6 00             	movzbl (%eax),%eax
  1014af:	84 c0                	test   %al,%al
  1014b1:	75 ec                	jne    10149f <strlen+0x19>
  1014b3:	8b 45 fc             	mov    -0x4(%ebp),%eax
  1014b6:	c9                   	leave
  1014b7:	c3                   	ret

001014b8 <strstr>:
  1014b8:	55                   	push   %ebp
  1014b9:	89 e5                	mov    %esp,%ebp
  1014bb:	83 ec 10             	sub    $0x10,%esp
  1014be:	e8 54 04 00 00       	call   101917 <__x86.get_pc_thunk.ax>
  1014c3:	05 2d 0f 00 00       	add    $0xf2d,%eax
  1014c8:	8b 45 0c             	mov    0xc(%ebp),%eax
  1014cb:	89 45 f8             	mov    %eax,-0x8(%ebp)
  1014ce:	8b 45 f8             	mov    -0x8(%ebp),%eax
  1014d1:	0f b6 00             	movzbl (%eax),%eax
  1014d4:	84 c0                	test   %al,%al
  1014d6:	75 56                	jne    10152e <strstr+0x76>
  1014d8:	8b 45 08             	mov    0x8(%ebp),%eax
  1014db:	eb 60                	jmp    10153d <strstr+0x85>
  1014dd:	8b 45 08             	mov    0x8(%ebp),%eax
  1014e0:	0f b6 10             	movzbl (%eax),%edx
  1014e3:	8b 45 f8             	mov    -0x8(%ebp),%eax
  1014e6:	0f b6 00             	movzbl (%eax),%eax
  1014e9:	38 c2                	cmp    %al,%dl
  1014eb:	75 3c                	jne    101529 <strstr+0x71>
  1014ed:	8b 45 08             	mov    0x8(%ebp),%eax
  1014f0:	89 45 fc             	mov    %eax,-0x4(%ebp)
  1014f3:	8b 45 f8             	mov    -0x8(%ebp),%eax
  1014f6:	0f b6 00             	movzbl (%eax),%eax
  1014f9:	84 c0                	test   %al,%al
  1014fb:	75 05                	jne    101502 <strstr+0x4a>
  1014fd:	8b 45 08             	mov    0x8(%ebp),%eax
  101500:	eb 3b                	jmp    10153d <strstr+0x85>
  101502:	8b 45 fc             	mov    -0x4(%ebp),%eax
  101505:	8d 50 01             	lea    0x1(%eax),%edx
  101508:	89 55 fc             	mov    %edx,-0x4(%ebp)
  10150b:	0f b6 08             	movzbl (%eax),%ecx
  10150e:	8b 45 f8             	mov    -0x8(%ebp),%eax
  101511:	8d 50 01             	lea    0x1(%eax),%edx
  101514:	89 55 f8             	mov    %edx,-0x8(%ebp)
  101517:	0f b6 00             	movzbl (%eax),%eax
  10151a:	38 c1                	cmp    %al,%cl
  10151c:	75 02                	jne    101520 <strstr+0x68>
  10151e:	eb d3                	jmp    1014f3 <strstr+0x3b>
  101520:	90                   	nop
  101521:	8b 45 0c             	mov    0xc(%ebp),%eax
  101524:	89 45 f8             	mov    %eax,-0x8(%ebp)
  101527:	eb 01                	jmp    10152a <strstr+0x72>
  101529:	90                   	nop
  10152a:	83 45 08 01          	addl   $0x1,0x8(%ebp)
  10152e:	8b 45 08             	mov    0x8(%ebp),%eax
  101531:	0f b6 00             	movzbl (%eax),%eax
  101534:	84 c0                	test   %al,%al
  101536:	75 a5                	jne    1014dd <strstr+0x25>
  101538:	b8 00 00 00 00       	mov    $0x0,%eax
  10153d:	c9                   	leave
  10153e:	c3                   	ret

0010153f <strcpy>:
  10153f:	55                   	push   %ebp
  101540:	89 e5                	mov    %esp,%ebp
  101542:	83 ec 10             	sub    $0x10,%esp
  101545:	e8 cd 03 00 00       	call   101917 <__x86.get_pc_thunk.ax>
  10154a:	05 a6 0e 00 00       	add    $0xea6,%eax
  10154f:	8b 45 08             	mov    0x8(%ebp),%eax
  101552:	89 45 fc             	mov    %eax,-0x4(%ebp)
  101555:	90                   	nop
  101556:	8b 55 0c             	mov    0xc(%ebp),%edx
  101559:	8d 42 01             	lea    0x1(%edx),%eax
  10155c:	89 45 0c             	mov    %eax,0xc(%ebp)
  10155f:	8b 45 08             	mov    0x8(%ebp),%eax
  101562:	8d 48 01             	lea    0x1(%eax),%ecx
  101565:	89 4d 08             	mov    %ecx,0x8(%ebp)
  101568:	0f b6 12             	movzbl (%edx),%edx
  10156b:	88 10                	mov    %dl,(%eax)
  10156d:	0f b6 00             	movzbl (%eax),%eax
  101570:	84 c0                	test   %al,%al
  101572:	75 e2                	jne    101556 <strcpy+0x17>
  101574:	8b 45 fc             	mov    -0x4(%ebp),%eax
  101577:	c9                   	leave
  101578:	c3                   	ret

00101579 <strcat>:
  101579:	55                   	push   %ebp
  10157a:	89 e5                	mov    %esp,%ebp
  10157c:	83 ec 10             	sub    $0x10,%esp
  10157f:	e8 93 03 00 00       	call   101917 <__x86.get_pc_thunk.ax>
  101584:	05 6c 0e 00 00       	add    $0xe6c,%eax
  101589:	c7 45 fc 00 00 00 00 	movl   $0x0,-0x4(%ebp)
  101590:	eb 04                	jmp    101596 <strcat+0x1d>
  101592:	83 45 fc 01          	addl   $0x1,-0x4(%ebp)
  101596:	8b 55 08             	mov    0x8(%ebp),%edx
  101599:	8b 45 fc             	mov    -0x4(%ebp),%eax
  10159c:	01 d0                	add    %edx,%eax
  10159e:	0f b6 00             	movzbl (%eax),%eax
  1015a1:	84 c0                	test   %al,%al
  1015a3:	75 ed                	jne    101592 <strcat+0x19>
  1015a5:	c7 45 f8 00 00 00 00 	movl   $0x0,-0x8(%ebp)
  1015ac:	eb 1e                	jmp    1015cc <strcat+0x53>
  1015ae:	8b 55 0c             	mov    0xc(%ebp),%edx
  1015b1:	8b 45 f8             	mov    -0x8(%ebp),%eax
  1015b4:	01 d0                	add    %edx,%eax
  1015b6:	8b 4d fc             	mov    -0x4(%ebp),%ecx
  1015b9:	8b 55 f8             	mov    -0x8(%ebp),%edx
  1015bc:	01 d1                	add    %edx,%ecx
  1015be:	8b 55 08             	mov    0x8(%ebp),%edx
  1015c1:	01 ca                	add    %ecx,%edx
  1015c3:	0f b6 00             	movzbl (%eax),%eax
  1015c6:	88 02                	mov    %al,(%edx)
  1015c8:	83 45 f8 01          	addl   $0x1,-0x8(%ebp)
  1015cc:	8b 55 0c             	mov    0xc(%ebp),%edx
  1015cf:	8b 45 f8             	mov    -0x8(%ebp),%eax
  1015d2:	01 d0                	add    %edx,%eax
  1015d4:	0f b6 00             	movzbl (%eax),%eax
  1015d7:	84 c0                	test   %al,%al
  1015d9:	75 d3                	jne    1015ae <strcat+0x35>
  1015db:	8b 55 fc             	mov    -0x4(%ebp),%edx
  1015de:	8b 45 f8             	mov    -0x8(%ebp),%eax
  1015e1:	01 c2                	add    %eax,%edx
  1015e3:	8b 45 08             	mov    0x8(%ebp),%eax
  1015e6:	01 d0                	add    %edx,%eax
  1015e8:	c6 00 00             	movb   $0x0,(%eax)
  1015eb:	8b 45 08             	mov    0x8(%ebp),%eax
  1015ee:	c9                   	leave
  1015ef:	c3                   	ret

001015f0 <exec>:
  1015f0:	55                   	push   %ebp
  1015f1:	89 e5                	mov    %esp,%ebp
  1015f3:	53                   	push   %ebx
  1015f4:	83 ec 10             	sub    $0x10,%esp
  1015f7:	e8 1b 03 00 00       	call   101917 <__x86.get_pc_thunk.ax>
  1015fc:	05 f4 0d 00 00       	add    $0xdf4,%eax
  101601:	8b 45 08             	mov    0x8(%ebp),%eax
  101604:	89 45 f0             	mov    %eax,-0x10(%ebp)
  101607:	8b 45 0c             	mov    0xc(%ebp),%eax
  10160a:	89 45 f4             	mov    %eax,-0xc(%ebp)
  10160d:	bb 0e 00 00 00       	mov    $0xe,%ebx
  101612:	8d 55 f0             	lea    -0x10(%ebp),%edx
  101615:	89 d8                	mov    %ebx,%eax
  101617:	89 d1                	mov    %edx,%ecx
  101619:	cd 80                	int    $0x80
  10161b:	8b 45 f8             	mov    -0x8(%ebp),%eax
  10161e:	8b 5d fc             	mov    -0x4(%ebp),%ebx
  101621:	c9                   	leave
  101622:	c3                   	ret

00101623 <fork>:
  101623:	55                   	push   %ebp
  101624:	89 e5                	mov    %esp,%ebp
  101626:	53                   	push   %ebx
  101627:	83 ec 10             	sub    $0x10,%esp
  10162a:	e8 e8 02 00 00       	call   101917 <__x86.get_pc_thunk.ax>
  10162f:	05 c1 0d 00 00       	add    $0xdc1,%eax
  101634:	c7 45 f0 00 00 00 00 	movl   $0x0,-0x10(%ebp)
  10163b:	bb 01 00 00 00       	mov    $0x1,%ebx
  101640:	8d 55 f0             	lea    -0x10(%ebp),%edx
  101643:	89 d8                	mov    %ebx,%eax
  101645:	89 d1                	mov    %edx,%ecx
  101647:	cd 80                	int    $0x80
  101649:	81 7d f8 e8 03 00 00 	cmpl   $0x3e8,-0x8(%ebp)
  101650:	75 07                	jne    101659 <fork+0x36>
  101652:	c7 45 f8 05 00 00 00 	movl   $0x5,-0x8(%ebp)
  101659:	8b 45 f0             	mov    -0x10(%ebp),%eax
  10165c:	89 45 f8             	mov    %eax,-0x8(%ebp)
  10165f:	8b 45 f8             	mov    -0x8(%ebp),%eax
  101662:	8b 5d fc             	mov    -0x4(%ebp),%ebx
  101665:	c9                   	leave
  101666:	c3                   	ret

00101667 <pause>:
  101667:	55                   	push   %ebp
  101668:	89 e5                	mov    %esp,%ebp
  10166a:	53                   	push   %ebx
  10166b:	e8 a7 02 00 00       	call   101917 <__x86.get_pc_thunk.ax>
  101670:	05 80 0d 00 00       	add    $0xd80,%eax
  101675:	ba 0b 00 00 00       	mov    $0xb,%edx
  10167a:	bb 00 00 00 00       	mov    $0x0,%ebx
  10167f:	89 d0                	mov    %edx,%eax
  101681:	89 d9                	mov    %ebx,%ecx
  101683:	cd 80                	int    $0x80
  101685:	90                   	nop
  101686:	8b 5d fc             	mov    -0x4(%ebp),%ebx
  101689:	c9                   	leave
  10168a:	c3                   	ret

0010168b <sleep>:
  10168b:	55                   	push   %ebp
  10168c:	89 e5                	mov    %esp,%ebp
  10168e:	53                   	push   %ebx
  10168f:	83 ec 10             	sub    $0x10,%esp
  101692:	e8 80 02 00 00       	call   101917 <__x86.get_pc_thunk.ax>
  101697:	05 59 0d 00 00       	add    $0xd59,%eax
  10169c:	8b 45 08             	mov    0x8(%ebp),%eax
  10169f:	89 45 f8             	mov    %eax,-0x8(%ebp)
  1016a2:	bb 0f 00 00 00       	mov    $0xf,%ebx
  1016a7:	8d 55 f8             	lea    -0x8(%ebp),%edx
  1016aa:	89 d8                	mov    %ebx,%eax
  1016ac:	89 d1                	mov    %edx,%ecx
  1016ae:	cd 80                	int    $0x80
  1016b0:	90                   	nop
  1016b1:	8b 5d fc             	mov    -0x4(%ebp),%ebx
  1016b4:	c9                   	leave
  1016b5:	c3                   	ret

001016b6 <close>:
  1016b6:	55                   	push   %ebp
  1016b7:	89 e5                	mov    %esp,%ebp
  1016b9:	53                   	push   %ebx
  1016ba:	83 ec 10             	sub    $0x10,%esp
  1016bd:	e8 55 02 00 00       	call   101917 <__x86.get_pc_thunk.ax>
  1016c2:	05 2e 0d 00 00       	add    $0xd2e,%eax
  1016c7:	8b 45 08             	mov    0x8(%ebp),%eax
  1016ca:	89 45 f4             	mov    %eax,-0xc(%ebp)
  1016cd:	bb 13 00 00 00       	mov    $0x13,%ebx
  1016d2:	8d 55 f4             	lea    -0xc(%ebp),%edx
  1016d5:	89 d8                	mov    %ebx,%eax
  1016d7:	89 d1                	mov    %edx,%ecx
  1016d9:	cd 80                	int    $0x80
  1016db:	8b 45 f8             	mov    -0x8(%ebp),%eax
  1016de:	8b 5d fc             	mov    -0x4(%ebp),%ebx
  1016e1:	c9                   	leave
  1016e2:	c3                   	ret

001016e3 <read>:
  1016e3:	55                   	push   %ebp
  1016e4:	89 e5                	mov    %esp,%ebp
  1016e6:	53                   	push   %ebx
  1016e7:	83 ec 20             	sub    $0x20,%esp
  1016ea:	e8 28 02 00 00       	call   101917 <__x86.get_pc_thunk.ax>
  1016ef:	05 01 0d 00 00       	add    $0xd01,%eax
  1016f4:	8b 45 08             	mov    0x8(%ebp),%eax
  1016f7:	89 45 e8             	mov    %eax,-0x18(%ebp)
  1016fa:	8b 45 0c             	mov    0xc(%ebp),%eax
  1016fd:	89 45 ec             	mov    %eax,-0x14(%ebp)
  101700:	8b 45 10             	mov    0x10(%ebp),%eax
  101703:	89 45 f0             	mov    %eax,-0x10(%ebp)
  101706:	c7 45 f4 00 00 00 00 	movl   $0x0,-0xc(%ebp)
  10170d:	bb 6d 00 00 00       	mov    $0x6d,%ebx
  101712:	8d 55 e8             	lea    -0x18(%ebp),%edx
  101715:	89 d8                	mov    %ebx,%eax
  101717:	89 d1                	mov    %edx,%ecx
  101719:	cd 80                	int    $0x80
  10171b:	8b 45 f8             	mov    -0x8(%ebp),%eax
  10171e:	8b 5d fc             	mov    -0x4(%ebp),%ebx
  101721:	c9                   	leave
  101722:	c3                   	ret

00101723 <write>:
  101723:	55                   	push   %ebp
  101724:	89 e5                	mov    %esp,%ebp
  101726:	53                   	push   %ebx
  101727:	83 ec 20             	sub    $0x20,%esp
  10172a:	e8 e8 01 00 00       	call   101917 <__x86.get_pc_thunk.ax>
  10172f:	05 c1 0c 00 00       	add    $0xcc1,%eax
  101734:	8b 45 08             	mov    0x8(%ebp),%eax
  101737:	89 45 e8             	mov    %eax,-0x18(%ebp)
  10173a:	8b 45 0c             	mov    0xc(%ebp),%eax
  10173d:	89 45 ec             	mov    %eax,-0x14(%ebp)
  101740:	8b 45 10             	mov    0x10(%ebp),%eax
  101743:	89 45 f0             	mov    %eax,-0x10(%ebp)
  101746:	c7 45 f4 01 00 00 00 	movl   $0x1,-0xc(%ebp)
  10174d:	bb 6d 00 00 00       	mov    $0x6d,%ebx
  101752:	8d 55 e8             	lea    -0x18(%ebp),%edx
  101755:	89 d8                	mov    %ebx,%eax
  101757:	89 d1                	mov    %edx,%ecx
  101759:	cd 80                	int    $0x80
  10175b:	8b 45 f8             	mov    -0x8(%ebp),%eax
  10175e:	8b 5d fc             	mov    -0x4(%ebp),%ebx
  101761:	c9                   	leave
  101762:	c3                   	ret

00101763 <chdir>:
  101763:	55                   	push   %ebp
  101764:	89 e5                	mov    %esp,%ebp
  101766:	53                   	push   %ebx
  101767:	83 ec 10             	sub    $0x10,%esp
  10176a:	e8 a8 01 00 00       	call   101917 <__x86.get_pc_thunk.ax>
  10176f:	05 81 0c 00 00       	add    $0xc81,%eax
  101774:	8b 45 08             	mov    0x8(%ebp),%eax
  101777:	89 45 f8             	mov    %eax,-0x8(%ebp)
  10177a:	bb 1a 00 00 00       	mov    $0x1a,%ebx
  10177f:	8d 55 f8             	lea    -0x8(%ebp),%edx
  101782:	89 d8                	mov    %ebx,%eax
  101784:	89 d1                	mov    %edx,%ecx
  101786:	cd 80                	int    $0x80
  101788:	8b 45 fc             	mov    -0x4(%ebp),%eax
  10178b:	8b 5d fc             	mov    -0x4(%ebp),%ebx
  10178e:	c9                   	leave
  10178f:	c3                   	ret

00101790 <lseek>:
  101790:	55                   	push   %ebp
  101791:	89 e5                	mov    %esp,%ebp
  101793:	53                   	push   %ebx
  101794:	83 ec 10             	sub    $0x10,%esp
  101797:	e8 7b 01 00 00       	call   101917 <__x86.get_pc_thunk.ax>
  10179c:	05 54 0c 00 00       	add    $0xc54,%eax
  1017a1:	8b 45 08             	mov    0x8(%ebp),%eax
  1017a4:	89 45 ec             	mov    %eax,-0x14(%ebp)
  1017a7:	8b 45 0c             	mov    0xc(%ebp),%eax
  1017aa:	89 45 f0             	mov    %eax,-0x10(%ebp)
  1017ad:	8b 45 10             	mov    0x10(%ebp),%eax
  1017b0:	89 45 f4             	mov    %eax,-0xc(%ebp)
  1017b3:	bb 24 00 00 00       	mov    $0x24,%ebx
  1017b8:	8d 55 ec             	lea    -0x14(%ebp),%edx
  1017bb:	89 d8                	mov    %ebx,%eax
  1017bd:	89 d1                	mov    %edx,%ecx
  1017bf:	cd 80                	int    $0x80
  1017c1:	8b 45 f8             	mov    -0x8(%ebp),%eax
  1017c4:	8b 5d fc             	mov    -0x4(%ebp),%ebx
  1017c7:	c9                   	leave
  1017c8:	c3                   	ret

001017c9 <getpid>:
  1017c9:	55                   	push   %ebp
  1017ca:	89 e5                	mov    %esp,%ebp
  1017cc:	53                   	push   %ebx
  1017cd:	83 ec 10             	sub    $0x10,%esp
  1017d0:	e8 42 01 00 00       	call   101917 <__x86.get_pc_thunk.ax>
  1017d5:	05 1b 0c 00 00       	add    $0xc1b,%eax
  1017da:	bb 26 00 00 00       	mov    $0x26,%ebx
  1017df:	8d 55 f8             	lea    -0x8(%ebp),%edx
  1017e2:	89 d8                	mov    %ebx,%eax
  1017e4:	89 d1                	mov    %edx,%ecx
  1017e6:	cd 80                	int    $0x80
  1017e8:	8b 45 f8             	mov    -0x8(%ebp),%eax
  1017eb:	8b 5d fc             	mov    -0x4(%ebp),%ebx
  1017ee:	c9                   	leave
  1017ef:	c3                   	ret

001017f0 <getpgid>:
  1017f0:	55                   	push   %ebp
  1017f1:	89 e5                	mov    %esp,%ebp
  1017f3:	53                   	push   %ebx
  1017f4:	83 ec 10             	sub    $0x10,%esp
  1017f7:	e8 1b 01 00 00       	call   101917 <__x86.get_pc_thunk.ax>
  1017fc:	05 f4 0b 00 00       	add    $0xbf4,%eax
  101801:	bb 27 00 00 00       	mov    $0x27,%ebx
  101806:	8d 55 f4             	lea    -0xc(%ebp),%edx
  101809:	89 d8                	mov    %ebx,%eax
  10180b:	89 d1                	mov    %edx,%ecx
  10180d:	cd 80                	int    $0x80
  10180f:	8b 45 f8             	mov    -0x8(%ebp),%eax
  101812:	8b 5d fc             	mov    -0x4(%ebp),%ebx
  101815:	c9                   	leave
  101816:	c3                   	ret

00101817 <setpgid>:
  101817:	55                   	push   %ebp
  101818:	89 e5                	mov    %esp,%ebp
  10181a:	53                   	push   %ebx
  10181b:	83 ec 10             	sub    $0x10,%esp
  10181e:	e8 f4 00 00 00       	call   101917 <__x86.get_pc_thunk.ax>
  101823:	05 cd 0b 00 00       	add    $0xbcd,%eax
  101828:	8b 45 08             	mov    0x8(%ebp),%eax
  10182b:	89 45 f0             	mov    %eax,-0x10(%ebp)
  10182e:	8b 45 0c             	mov    0xc(%ebp),%eax
  101831:	89 45 f4             	mov    %eax,-0xc(%ebp)
  101834:	bb 28 00 00 00       	mov    $0x28,%ebx
  101839:	8d 55 f0             	lea    -0x10(%ebp),%edx
  10183c:	89 d8                	mov    %ebx,%eax
  10183e:	89 d1                	mov    %edx,%ecx
  101840:	cd 80                	int    $0x80
  101842:	8b 45 f8             	mov    -0x8(%ebp),%eax
  101845:	8b 5d fc             	mov    -0x4(%ebp),%ebx
  101848:	c9                   	leave
  101849:	c3                   	ret

0010184a <tcgetpgrp>:
  10184a:	55                   	push   %ebp
  10184b:	89 e5                	mov    %esp,%ebp
  10184d:	53                   	push   %ebx
  10184e:	83 ec 10             	sub    $0x10,%esp
  101851:	e8 c1 00 00 00       	call   101917 <__x86.get_pc_thunk.ax>
  101856:	05 9a 0b 00 00       	add    $0xb9a,%eax
  10185b:	bb 29 00 00 00       	mov    $0x29,%ebx
  101860:	8d 55 f8             	lea    -0x8(%ebp),%edx
  101863:	89 d8                	mov    %ebx,%eax
  101865:	89 d1                	mov    %edx,%ecx
  101867:	cd 80                	int    $0x80
  101869:	8b 45 f8             	mov    -0x8(%ebp),%eax
  10186c:	8b 5d fc             	mov    -0x4(%ebp),%ebx
  10186f:	c9                   	leave
  101870:	c3                   	ret

00101871 <tcsetpgrp>:
  101871:	55                   	push   %ebp
  101872:	89 e5                	mov    %esp,%ebp
  101874:	53                   	push   %ebx
  101875:	83 ec 10             	sub    $0x10,%esp
  101878:	e8 9a 00 00 00       	call   101917 <__x86.get_pc_thunk.ax>
  10187d:	05 73 0b 00 00       	add    $0xb73,%eax
  101882:	8b 45 08             	mov    0x8(%ebp),%eax
  101885:	89 45 f4             	mov    %eax,-0xc(%ebp)
  101888:	bb 2a 00 00 00       	mov    $0x2a,%ebx
  10188d:	8d 55 f4             	lea    -0xc(%ebp),%edx
  101890:	89 d8                	mov    %ebx,%eax
  101892:	89 d1                	mov    %edx,%ecx
  101894:	cd 80                	int    $0x80
  101896:	8b 45 f8             	mov    -0x8(%ebp),%eax
  101899:	8b 5d fc             	mov    -0x4(%ebp),%ebx
  10189c:	c9                   	leave
  10189d:	c3                   	ret

0010189e <read_test>:
  10189e:	55                   	push   %ebp
  10189f:	89 e5                	mov    %esp,%ebp
  1018a1:	53                   	push   %ebx
  1018a2:	83 ec 10             	sub    $0x10,%esp
  1018a5:	e8 6d 00 00 00       	call   101917 <__x86.get_pc_thunk.ax>
  1018aa:	05 46 0b 00 00       	add    $0xb46,%eax
  1018af:	bb 69 00 00 00       	mov    $0x69,%ebx
  1018b4:	8d 55 f8             	lea    -0x8(%ebp),%edx
  1018b7:	89 d8                	mov    %ebx,%eax
  1018b9:	89 d1                	mov    %edx,%ecx
  1018bb:	cd 80                	int    $0x80
  1018bd:	90                   	nop
  1018be:	8b 5d fc             	mov    -0x4(%ebp),%ebx
  1018c1:	c9                   	leave
  1018c2:	c3                   	ret

001018c3 <signal>:
  1018c3:	55                   	push   %ebp
  1018c4:	89 e5                	mov    %esp,%ebp
  1018c6:	53                   	push   %ebx
  1018c7:	83 ec 10             	sub    $0x10,%esp
  1018ca:	e8 48 00 00 00       	call   101917 <__x86.get_pc_thunk.ax>
  1018cf:	05 21 0b 00 00       	add    $0xb21,%eax
  1018d4:	bb 6b 00 00 00       	mov    $0x6b,%ebx
  1018d9:	8d 55 f8             	lea    -0x8(%ebp),%edx
  1018dc:	89 d8                	mov    %ebx,%eax
  1018de:	89 d1                	mov    %edx,%ecx
  1018e0:	cd 80                	int    $0x80
  1018e2:	90                   	nop
  1018e3:	8b 5d fc             	mov    -0x4(%ebp),%ebx
  1018e6:	c9                   	leave
  1018e7:	c3                   	ret

001018e8 <select_dev>:
  1018e8:	55                   	push   %ebp
  1018e9:	89 e5                	mov    %esp,%ebp
  1018eb:	53                   	push   %ebx
  1018ec:	83 ec 10             	sub    $0x10,%esp
  1018ef:	e8 23 00 00 00       	call   101917 <__x86.get_pc_thunk.ax>
  1018f4:	05 fc 0a 00 00       	add    $0xafc,%eax
  1018f9:	8b 45 08             	mov    0x8(%ebp),%eax
  1018fc:	89 45 f8             	mov    %eax,-0x8(%ebp)
  1018ff:	bb 6c 00 00 00       	mov    $0x6c,%ebx
  101904:	8d 55 f8             	lea    -0x8(%ebp),%edx
  101907:	89 d8                	mov    %ebx,%eax
  101909:	89 d1                	mov    %edx,%ecx
  10190b:	cd 80                	int    $0x80
  10190d:	90                   	nop
  10190e:	8b 5d fc             	mov    -0x4(%ebp),%ebx
  101911:	c9                   	leave
  101912:	c3                   	ret

Disassemblamento della sezione .text.__x86.get_pc_thunk.bx:

00101913 <__x86.get_pc_thunk.bx>:
  101913:	8b 1c 24             	mov    (%esp),%ebx
  101916:	c3                   	ret

Disassemblamento della sezione .text.__x86.get_pc_thunk.ax:

00101917 <__x86.get_pc_thunk.ax>:
  101917:	8b 04 24             	mov    (%esp),%eax
  10191a:	c3                   	ret

Disassemblamento della sezione .text.__x86.get_pc_thunk.dx:

0010191b <__x86.get_pc_thunk.dx>:
  10191b:	8b 14 24             	mov    (%esp),%edx
  10191e:	c3                   	ret

Disassemblamento della sezione .rodata:

0010191f <rodata>:
  10191f:	67 2d 73 68 65 6c    	addr16 sub $0x6c656873,%eax
  101925:	6c                   	insb   (%dx),%es:(%edi)
  101926:	20 76 20             	and    %dh,0x20(%esi)
  101929:	30 2e                	xor    %ch,(%esi)
  10192b:	31 20                	xor    %esp,(%eax)
  10192d:	0a 00                	or     (%eax),%al
  10192f:	2b 2b                	sub    (%ebx),%ebp
  101931:	2b 3d 3e 00 25 73    	sub    0x7325003e,%edi
  101937:	00 0a                	add    %cl,(%edx)
  101939:	00 43 6f             	add    %al,0x6f(%ebx)
  10193c:	6d                   	insl   (%dx),%es:(%edi)
  10193d:	6d                   	insl   (%dx),%es:(%edi)
  10193e:	61                   	popa
  10193f:	6e                   	outsb  %ds:(%esi),(%dx)
  101940:	64 20 6e 6f          	and    %ch,%fs:0x6f(%esi)
  101944:	74 20                	je     101966 <rodata+0x47>
  101946:	66 6f                	outsw  %ds:(%esi),(%dx)
  101948:	75 6e                	jne    1019b8 <rodata+0x99>
  10194a:	64 2e 00 2d 2d 2d 31 	fs add %ch,%cs:0x20312d2d
  101951:	20 
  101952:	0a 00                	or     (%eax),%al
  101954:	2d 2d 2d 61 72       	sub    $0x72612d2d,%eax
  101959:	67 63 3d             	arpl   %di,(%di)
  10195c:	25 64 20 0a 00       	and    $0xa2064,%eax
  101961:	2d 2d 2d 32 20       	sub    $0x20322d2d,%eax
  101966:	0a 00                	or     (%eax),%al
  101968:	2d 2d 2d 33 20       	sub    $0x20332d2d,%eax
  10196d:	0a 00                	or     (%eax),%al
  10196f:	2d 2d 2d 34 20       	sub    $0x20342d2d,%eax
  101974:	0a 00                	or     (%eax),%al
  101976:	2d 2d 2d 35 20       	sub    $0x20352d2d,%eax
  10197b:	0a 00                	or     (%eax),%al
  10197d:	2d 2d 2d 36 20       	sub    $0x20362d2d,%eax
  101982:	0a 00                	or     (%eax),%al
  101984:	77 72                	ja     1019f8 <rodata+0xd9>
  101986:	6f                   	outsl  %ds:(%esi),(%dx)
  101987:	6e                   	outsb  %ds:(%esi),(%dx)
  101988:	67 20 61 72          	and    %ah,0x72(%bx,%di)
  10198c:	67 75 6d             	addr16 jne 1019fc <rodata+0xdd>
  10198f:	65 6e                	outsb  %gs:(%esi),(%dx)
  101991:	74 73                	je     101a06 <rodata+0xe7>
  101993:	00 69 6e             	add    %ch,0x6e(%ecx)
  101996:	73 69                	jae    101a01 <rodata+0xe2>
  101998:	64 65 20 69 6e       	fs and %ch,%gs:0x6e(%ecx)
  10199d:	69 74 5f 6d 61 6c 6c 	imul   $0x6f6c6c61,0x6d(%edi,%ebx,2),%esi
  1019a4:	6f 
  1019a5:	63 20                	arpl   %sp,(%eax)
  1019a7:	0a 00                	or     (%eax),%al
  1019a9:	6d                   	insl   (%dx),%es:(%edi)
  1019aa:	61                   	popa
  1019ab:	6c                   	insb   (%dx),%es:(%edi)
  1019ac:	6c                   	insb   (%dx),%es:(%edi)
  1019ad:	6f                   	outsl  %ds:(%esi),(%dx)
  1019ae:	63 20                	arpl   %sp,(%eax)
  1019b0:	6f                   	outsl  %ds:(%esi),(%dx)
  1019b1:	66 20 25 64 20 0a 00 	data16 and %ah,0xa2064
  1019b8:	69 20 69 73 20 25    	imul   $0x25207369,(%eax),%esp
  1019be:	64 20 0a             	and    %cl,%fs:(%edx)
  1019c1:	00 31                	add    %dh,(%ecx)
  1019c3:	31 31                	xor    %esi,(%ecx)
  1019c5:	31 31                	xor    %esi,(%ecx)
  1019c7:	31 31                	xor    %esi,(%ecx)
  1019c9:	20 25 64 20 0a 00    	and    %ah,0xa2064
  1019cf:	32 32                	xor    (%edx),%dh
  1019d1:	32 32                	xor    (%edx),%dh
  1019d3:	32 32                	xor    (%edx),%dh
  1019d5:	20 25 64 20 0a 00    	and    %ah,0xa2064
  1019db:	63 61 6c             	arpl   %sp,0x6c(%ecx)
  1019de:	6c                   	insb   (%dx),%es:(%edi)
  1019df:	69 6e 67 20 69 6e 69 	imul   $0x696e6920,0x67(%esi),%ebp
  1019e6:	74 5f                	je     101a47 <rodata+0x128>
  1019e8:	6d                   	insl   (%dx),%es:(%edi)
  1019e9:	61                   	popa
  1019ea:	6c                   	insb   (%dx),%es:(%edi)
  1019eb:	6c                   	insb   (%dx),%es:(%edi)
  1019ec:	6f                   	outsl  %ds:(%esi),(%dx)
  1019ed:	63 20                	arpl   %sp,(%eax)
  1019ef:	0a 00                	or     (%eax),%al
  1019f1:	33 33                	xor    (%ebx),%esi
  1019f3:	33 33                	xor    (%ebx),%esi
  1019f5:	33 20                	xor    (%eax),%esp
  1019f7:	25 64 20 0a 00       	and    $0xa2064,%eax
  1019fc:	6d                   	insl   (%dx),%es:(%edi)
  1019fd:	61                   	popa
  1019fe:	6c                   	insb   (%dx),%es:(%edi)
  1019ff:	6c                   	insb   (%dx),%es:(%edi)
  101a00:	6f                   	outsl  %ds:(%esi),(%dx)
  101a01:	63 20                	arpl   %sp,(%eax)
  101a03:	6e                   	outsb  %ds:(%esi),(%dx)
  101a04:	6f                   	outsl  %ds:(%esi),(%dx)
  101a05:	74 20                	je     101a27 <rodata+0x108>
  101a07:	69 6e 69 74 20 0a 00 	imul   $0xa2074,0x69(%esi),%ebp
  101a0e:	72 75                	jb     101a85 <rodata+0x166>
  101a10:	6e                   	outsb  %ds:(%esi),(%dx)
  101a11:	20 6f 66             	and    %ch,0x66(%edi)
  101a14:	20 6d 65             	and    %ch,0x65(%ebp)
  101a17:	6d                   	insl   (%dx),%es:(%edi)
  101a18:	6f                   	outsl  %ds:(%esi),(%dx)
  101a19:	72 79                	jb     101a94 <rodata+0x175>
  101a1b:	20 25 64 20 21 21    	and    %ah,0x21212064
  101a21:	21 20                	and    %esp,(%eax)
  101a23:	0a 00                	or     (%eax),%al
  101a25:	69 20 3d 20 25 64    	imul   $0x6425203d,(%eax),%esp
  101a2b:	20 0a                	and    %cl,(%edx)
  101a2d:	00 6d 65             	add    %ch,0x65(%ebp)
  101a30:	6d                   	insl   (%dx),%es:(%edi)
  101a31:	20 73 69             	and    %dh,0x69(%ebx)
  101a34:	7a 65                	jp     101a9b <rodata+0x17c>
  101a36:	20 25 64 20 0a 00    	and    %ah,0xa2064
  101a3c:	34 34                	xor    $0x34,%al
  101a3e:	34 34                	xor    $0x34,%al
  101a40:	34 34                	xor    $0x34,%al
  101a42:	34 20                	xor    $0x20,%al
  101a44:	0a 00                	or     (%eax),%al
  101a46:	35 35 35 35 35       	xor    $0x35353535,%eax
  101a4b:	35 20 0a 00 70       	xor    $0x70000a20,%eax
  101a50:	61                   	popa
  101a51:	6e                   	outsb  %ds:(%esi),(%dx)
  101a52:	69 63 21 21 21 21 20 	imul   $0x20212121,0x21(%ebx),%esp
  101a59:	0a 00                	or     (%eax),%al

Disassemblamento della sezione .eh_frame:

00101a5c <.eh_frame>:
  101a5c:	14 00                	adc    $0x0,%al
  101a5e:	00 00                	add    %al,(%eax)
  101a60:	00 00                	add    %al,(%eax)
  101a62:	00 00                	add    %al,(%eax)
  101a64:	01 7a 52             	add    %edi,0x52(%edx)
  101a67:	00 01                	add    %al,(%ecx)
  101a69:	7c 08                	jl     101a73 <rodata+0x154>
  101a6b:	01 1b                	add    %ebx,(%ebx)
  101a6d:	0c 04                	or     $0x4,%al
  101a6f:	04 88                	add    $0x88,%al
  101a71:	01 00                	add    %eax,(%eax)
  101a73:	00 28                	add    %ch,(%eax)
  101a75:	00 00                	add    %al,(%eax)
  101a77:	00 1c 00             	add    %bl,(%eax,%eax,1)
  101a7a:	00 00                	add    %al,(%eax)
  101a7c:	84 e5                	test   %ah,%ch
  101a7e:	ff                   	(bad)
  101a7f:	ff a0 04 00 00 00    	jmp    *0x4(%eax)
  101a85:	44                   	inc    %esp
  101a86:	0c 01                	or     $0x1,%al
  101a88:	00 49 10             	add    %cl,0x10(%ecx)
  101a8b:	05 02 75 00 43       	add    $0x43007502,%eax
  101a90:	0f 03 75 74          	lsl    0x74(%ebp),%esi
  101a94:	06                   	push   %es
  101a95:	10 06                	adc    %al,(%esi)
  101a97:	02 75 7c             	add    0x7c(%ebp),%dh
  101a9a:	10 03                	adc    %al,(%ebx)
  101a9c:	02 75 78             	add    0x78(%ebp),%dh
  101a9f:	00 20                	add    %ah,(%eax)
  101aa1:	00 00                	add    %al,(%eax)
  101aa3:	00 48 00             	add    %cl,0x0(%eax)
  101aa6:	00 00                	add    %al,(%eax)
  101aa8:	f8                   	clc
  101aa9:	e9 ff ff 65 00       	jmp    761aad <a_fixed_size_desc+0x65f6ad>
  101aae:	00 00                	add    %al,(%eax)
  101ab0:	00 41 0e             	add    %al,0xe(%ecx)
  101ab3:	08 85 02 42 0d 05    	or     %al,0x50d4202(%ebp)
  101ab9:	44                   	inc    %esp
  101aba:	83 03 02             	addl   $0x2,(%ebx)
  101abd:	5d                   	pop    %ebp
  101abe:	c5 c3 0c             	(bad)
  101ac1:	04 04                	add    $0x4,%al
  101ac3:	00 10                	add    %dl,(%eax)
  101ac5:	00 00                	add    %al,(%eax)
  101ac7:	00 6c 00 00          	add    %ch,0x0(%eax,%eax,1)
  101acb:	00 47 fe             	add    %al,-0x2(%edi)
  101ace:	ff                   	(bad)
  101acf:	ff 04 00             	incl   (%eax,%eax,1)
  101ad2:	00 00                	add    %al,(%eax)
  101ad4:	00 00                	add    %al,(%eax)
  101ad6:	00 00                	add    %al,(%eax)
  101ad8:	20 00                	and    %al,(%eax)
  101ada:	00 00                	add    %al,(%eax)
  101adc:	80 00 00             	addb   $0x0,(%eax)
  101adf:	00 25 ea ff ff 25    	add    %ah,0x25ffffea
  101ae5:	00 00                	add    %al,(%eax)
  101ae7:	00 00                	add    %al,(%eax)
  101ae9:	41                   	inc    %ecx
  101aea:	0e                   	push   %cs
  101aeb:	08 85 02 42 0d 05    	or     %al,0x50d4202(%ebp)
  101af1:	44                   	inc    %esp
  101af2:	83 03 5d             	addl   $0x5d,(%ebx)
  101af5:	c5 c3 0c             	(bad)
  101af8:	04 04                	add    $0x4,%al
  101afa:	00 00                	add    %al,(%eax)
  101afc:	20 00                	and    %al,(%eax)
  101afe:	00 00                	add    %al,(%eax)
  101b00:	a4                   	movsb  %ds:(%esi),%es:(%edi)
  101b01:	00 00                	add    %al,(%eax)
  101b03:	00 26                	add    %ah,(%esi)
  101b05:	ea ff ff 25 00 00 00 	ljmp   $0x0,$0x25ffff
  101b0c:	00 41 0e             	add    %al,0xe(%ecx)
  101b0f:	08 85 02 42 0d 05    	or     %al,0x50d4202(%ebp)
  101b15:	44                   	inc    %esp
  101b16:	83 03 5d             	addl   $0x5d,(%ebx)
  101b19:	c5 c3 0c             	(bad)
  101b1c:	04 04                	add    $0x4,%al
  101b1e:	00 00                	add    %al,(%eax)
  101b20:	20 00                	and    %al,(%eax)
  101b22:	00 00                	add    %al,(%eax)
  101b24:	c8 00 00 00          	enter  $0x0,$0x0
  101b28:	27                   	daa
  101b29:	ea ff ff 25 00 00 00 	ljmp   $0x0,$0x25ffff
  101b30:	00 41 0e             	add    %al,0xe(%ecx)
  101b33:	08 85 02 42 0d 05    	or     %al,0x50d4202(%ebp)
  101b39:	44                   	inc    %esp
  101b3a:	83 03 5d             	addl   $0x5d,(%ebx)
  101b3d:	c5 c3 0c             	(bad)
  101b40:	04 04                	add    $0x4,%al
  101b42:	00 00                	add    %al,(%eax)
  101b44:	10 00                	adc    %al,(%eax)
  101b46:	00 00                	add    %al,(%eax)
  101b48:	ec                   	in     (%dx),%al
  101b49:	00 00                	add    %al,(%eax)
  101b4b:	00 cb                	add    %cl,%bl
  101b4d:	fd                   	std
  101b4e:	ff                   	(bad)
  101b4f:	ff 04 00             	incl   (%eax,%eax,1)
  101b52:	00 00                	add    %al,(%eax)
  101b54:	00 00                	add    %al,(%eax)
  101b56:	00 00                	add    %al,(%eax)
  101b58:	20 00                	and    %al,(%eax)
  101b5a:	00 00                	add    %al,(%eax)
  101b5c:	00 01                	add    %al,(%ecx)
  101b5e:	00 00                	add    %al,(%eax)
  101b60:	14 ea                	adc    $0xea,%al
  101b62:	ff                   	(bad)
  101b63:	ff 33                	push   (%ebx)
  101b65:	00 00                	add    %al,(%eax)
  101b67:	00 00                	add    %al,(%eax)
  101b69:	41                   	inc    %ecx
  101b6a:	0e                   	push   %cs
  101b6b:	08 85 02 42 0d 05    	or     %al,0x50d4202(%ebp)
  101b71:	44                   	inc    %esp
  101b72:	83 03 6b             	addl   $0x6b,(%ebx)
  101b75:	c5 c3 0c             	(bad)
  101b78:	04 04                	add    $0x4,%al
  101b7a:	00 00                	add    %al,(%eax)
  101b7c:	20 00                	and    %al,(%eax)
  101b7e:	00 00                	add    %al,(%eax)
  101b80:	24 01                	and    $0x1,%al
  101b82:	00 00                	add    %al,(%eax)
  101b84:	23 ea                	and    %edx,%ebp
  101b86:	ff                   	(bad)
  101b87:	ff 25 00 00 00 00    	jmp    *0x0
  101b8d:	41                   	inc    %ecx
  101b8e:	0e                   	push   %cs
  101b8f:	08 85 02 42 0d 05    	or     %al,0x50d4202(%ebp)
  101b95:	44                   	inc    %esp
  101b96:	83 03 5d             	addl   $0x5d,(%ebx)
  101b99:	c5 c3 0c             	(bad)
  101b9c:	04 04                	add    $0x4,%al
  101b9e:	00 00                	add    %al,(%eax)
  101ba0:	1c 00                	sbb    $0x0,%al
  101ba2:	00 00                	add    %al,(%eax)
  101ba4:	48                   	dec    %eax
  101ba5:	01 00                	add    %eax,(%eax)
  101ba7:	00 24 ea             	add    %ah,(%edx,%ebp,8)
  101baa:	ff                   	(bad)
  101bab:	ff                   	(bad)
  101bac:	bd 00 00 00 00       	mov    $0x0,%ebp
  101bb1:	41                   	inc    %ecx
  101bb2:	0e                   	push   %cs
  101bb3:	08 85 02 42 0d 05    	or     %al,0x50d4202(%ebp)
  101bb9:	02 b9 c5 0c 04 04    	add    0x4040cc5(%ecx),%bh
  101bbf:	00 1c 00             	add    %bl,(%eax,%eax,1)
  101bc2:	00 00                	add    %al,(%eax)
  101bc4:	68 01 00 00 c1       	push   $0xc1000001
  101bc9:	ea ff ff 55 00 00 00 	ljmp   $0x0,$0x55ffff
  101bd0:	00 41 0e             	add    %al,0xe(%ecx)
  101bd3:	08 85 02 42 0d 05    	or     %al,0x50d4202(%ebp)
  101bd9:	02 51 c5             	add    -0x3b(%ecx),%dl
  101bdc:	0c 04                	or     $0x4,%al
  101bde:	04 00                	add    $0x0,%al
  101be0:	1c 00                	sbb    $0x0,%al
  101be2:	00 00                	add    %al,(%eax)
  101be4:	88 01                	mov    %al,(%ecx)
  101be6:	00 00                	add    %al,(%eax)
  101be8:	f6 ea                	imul   %dl
  101bea:	ff                   	(bad)
  101beb:	ff 5e 00             	lcall  *0x0(%esi)
  101bee:	00 00                	add    %al,(%eax)
  101bf0:	00 41 0e             	add    %al,0xe(%ecx)
  101bf3:	08 85 02 42 0d 05    	or     %al,0x50d4202(%ebp)
  101bf9:	02 5a c5             	add    -0x3b(%edx),%bl
  101bfc:	0c 04                	or     $0x4,%al
  101bfe:	04 00                	add    $0x0,%al
  101c00:	20 00                	and    %al,(%eax)
  101c02:	00 00                	add    %al,(%eax)
  101c04:	a8 01                	test   $0x1,%al
  101c06:	00 00                	add    %al,(%eax)
  101c08:	34 eb                	xor    $0xeb,%al
  101c0a:	ff                   	(bad)
  101c0b:	ff 82 00 00 00 00    	incl   0x0(%edx)
  101c11:	41                   	inc    %ecx
  101c12:	0e                   	push   %cs
  101c13:	08 85 02 42 0d 05    	or     %al,0x50d4202(%ebp)
  101c19:	44                   	inc    %esp
  101c1a:	83 03 02             	addl   $0x2,(%ebx)
  101c1d:	7a c5                	jp     101be4 <rodata+0x2c5>
  101c1f:	c3                   	ret
  101c20:	0c 04                	or     $0x4,%al
  101c22:	04 00                	add    $0x0,%al
  101c24:	20 00                	and    %al,(%eax)
  101c26:	00 00                	add    %al,(%eax)
  101c28:	cc                   	int3
  101c29:	01 00                	add    %eax,(%eax)
  101c2b:	00 92 eb ff ff c8    	add    %dl,-0x37000015(%edx)
  101c31:	01 00                	add    %eax,(%eax)
  101c33:	00 00                	add    %al,(%eax)
  101c35:	41                   	inc    %ecx
  101c36:	0e                   	push   %cs
  101c37:	08 85 02 42 0d 05    	or     %al,0x50d4202(%ebp)
  101c3d:	44                   	inc    %esp
  101c3e:	83 03 03             	addl   $0x3,(%ebx)
  101c41:	c0 01 c5             	rolb   $0xc5,(%ecx)
  101c44:	c3                   	ret
  101c45:	0c 04                	or     $0x4,%al
  101c47:	04 1c                	add    $0x1c,%al
  101c49:	00 00                	add    %al,(%eax)
  101c4b:	00 f0                	add    %dh,%al
  101c4d:	01 00                	add    %eax,(%eax)
  101c4f:	00 36                	add    %dh,(%esi)
  101c51:	ed                   	in     (%dx),%eax
  101c52:	ff                   	(bad)
  101c53:	ff 52 00             	call   *0x0(%edx)
  101c56:	00 00                	add    %al,(%eax)
  101c58:	00 41 0e             	add    %al,0xe(%ecx)
  101c5b:	08 85 02 42 0d 05    	or     %al,0x50d4202(%ebp)
  101c61:	02 4e c5             	add    -0x3b(%esi),%cl
  101c64:	0c 04                	or     $0x4,%al
  101c66:	04 00                	add    $0x0,%al
  101c68:	1c 00                	sbb    $0x0,%al
  101c6a:	00 00                	add    %al,(%eax)
  101c6c:	10 02                	adc    %al,(%edx)
  101c6e:	00 00                	add    %al,(%eax)
  101c70:	68 ed ff ff 25       	push   $0x25ffffed
  101c75:	00 00                	add    %al,(%eax)
  101c77:	00 00                	add    %al,(%eax)
  101c79:	41                   	inc    %ecx
  101c7a:	0e                   	push   %cs
  101c7b:	08 85 02 42 0d 05    	or     %al,0x50d4202(%ebp)
  101c81:	61                   	popa
  101c82:	c5 0c 04             	lds    (%esp,%eax,1),%ecx
  101c85:	04 00                	add    $0x0,%al
  101c87:	00 1c 00             	add    %bl,(%eax,%eax,1)
  101c8a:	00 00                	add    %al,(%eax)
  101c8c:	30 02                	xor    %al,(%edx)
  101c8e:	00 00                	add    %al,(%eax)
  101c90:	6d                   	insl   (%dx),%es:(%edi)
  101c91:	ed                   	in     (%dx),%eax
  101c92:	ff                   	(bad)
  101c93:	ff 1e                	lcall  *(%esi)
  101c95:	00 00                	add    %al,(%eax)
  101c97:	00 00                	add    %al,(%eax)
  101c99:	41                   	inc    %ecx
  101c9a:	0e                   	push   %cs
  101c9b:	08 85 02 42 0d 05    	or     %al,0x50d4202(%ebp)
  101ca1:	5a                   	pop    %edx
  101ca2:	c5 0c 04             	lds    (%esp,%eax,1),%ecx
  101ca5:	04 00                	add    $0x0,%al
  101ca7:	00 20                	add    %ah,(%eax)
  101ca9:	00 00                	add    %al,(%eax)
  101cab:	00 50 02             	add    %dl,0x2(%eax)
  101cae:	00 00                	add    %al,(%eax)
  101cb0:	6b ed ff             	imul   $0xffffffff,%ebp,%ebp
  101cb3:	ff 2d 00 00 00 00    	ljmp   *0x0
  101cb9:	41                   	inc    %ecx
  101cba:	0e                   	push   %cs
  101cbb:	08 85 02 42 0d 05    	or     %al,0x50d4202(%ebp)
  101cc1:	44                   	inc    %esp
  101cc2:	83 03 65             	addl   $0x65,(%ebx)
  101cc5:	c5 c3 0c             	(bad)
  101cc8:	04 04                	add    $0x4,%al
  101cca:	00 00                	add    %al,(%eax)
  101ccc:	20 00                	and    %al,(%eax)
  101cce:	00 00                	add    %al,(%eax)
  101cd0:	74 02                	je     101cd4 <rodata+0x3b5>
  101cd2:	00 00                	add    %al,(%eax)
  101cd4:	74 ed                	je     101cc3 <rodata+0x3a4>
  101cd6:	ff                   	(bad)
  101cd7:	ff 5c 00 00          	lcall  *0x0(%eax,%eax,1)
  101cdb:	00 00                	add    %al,(%eax)
  101cdd:	41                   	inc    %ecx
  101cde:	0e                   	push   %cs
  101cdf:	08 85 02 42 0d 05    	or     %al,0x50d4202(%ebp)
  101ce5:	44                   	inc    %esp
  101ce6:	83 03 02             	addl   $0x2,(%ebx)
  101ce9:	54                   	push   %esp
  101cea:	c5 c3 0c             	(bad)
  101ced:	04 04                	add    $0x4,%al
  101cef:	00 20                	add    %ah,(%eax)
  101cf1:	00 00                	add    %al,(%eax)
  101cf3:	00 98 02 00 00 ac    	add    %bl,-0x53fffffe(%eax)
  101cf9:	ed                   	in     (%dx),%eax
  101cfa:	ff                   	(bad)
  101cfb:	ff 2d 00 00 00 00    	ljmp   *0x0
  101d01:	41                   	inc    %ecx
  101d02:	0e                   	push   %cs
  101d03:	08 85 02 42 0d 05    	or     %al,0x50d4202(%ebp)
  101d09:	44                   	inc    %esp
  101d0a:	83 03 65             	addl   $0x65,(%ebx)
  101d0d:	c5 c3 0c             	(bad)
  101d10:	04 04                	add    $0x4,%al
  101d12:	00 00                	add    %al,(%eax)
  101d14:	20 00                	and    %al,(%eax)
  101d16:	00 00                	add    %al,(%eax)
  101d18:	bc 02 00 00 b5       	mov    $0xb5000002,%esp
  101d1d:	ed                   	in     (%dx),%eax
  101d1e:	ff                   	(bad)
  101d1f:	ff                   	(bad)
  101d20:	39 00                	cmp    %eax,(%eax)
  101d22:	00 00                	add    %al,(%eax)
  101d24:	00 41 0e             	add    %al,0xe(%ecx)
  101d27:	08 85 02 42 0d 05    	or     %al,0x50d4202(%ebp)
  101d2d:	44                   	inc    %esp
  101d2e:	83 03 71             	addl   $0x71,(%ebx)
  101d31:	c5 c3 0c             	(bad)
  101d34:	04 04                	add    $0x4,%al
  101d36:	00 00                	add    %al,(%eax)
  101d38:	20 00                	and    %al,(%eax)
  101d3a:	00 00                	add    %al,(%eax)
  101d3c:	e0 02                	loopne 101d40 <rodata+0x421>
  101d3e:	00 00                	add    %al,(%eax)
  101d40:	ca ed ff             	lret   $0xffed
  101d43:	ff 57 00             	call   *0x0(%edi)
  101d46:	00 00                	add    %al,(%eax)
  101d48:	00 41 0e             	add    %al,0xe(%ecx)
  101d4b:	08 85 02 42 0d 05    	or     %al,0x50d4202(%ebp)
  101d51:	44                   	inc    %esp
  101d52:	83 03 02             	addl   $0x2,(%ebx)
  101d55:	4f                   	dec    %edi
  101d56:	c5 c3 0c             	(bad)
  101d59:	04 04                	add    $0x4,%al
  101d5b:	00 20                	add    %ah,(%eax)
  101d5d:	00 00                	add    %al,(%eax)
  101d5f:	00 04 03             	add    %al,(%ebx,%eax,1)
  101d62:	00 00                	add    %al,(%eax)
  101d64:	fd                   	std
  101d65:	ed                   	in     (%dx),%eax
  101d66:	ff                   	(bad)
  101d67:	ff ab 00 00 00 00    	ljmp   *0x0(%ebx)
  101d6d:	41                   	inc    %ecx
  101d6e:	0e                   	push   %cs
  101d6f:	08 85 02 42 0d 05    	or     %al,0x50d4202(%ebp)
  101d75:	44                   	inc    %esp
  101d76:	83 03 02             	addl   $0x2,(%ebx)
  101d79:	a3 c5 c3 0c 04       	mov    %eax,0x40cc3c5
  101d7e:	04 00                	add    $0x0,%al
  101d80:	20 00                	and    %al,(%eax)
  101d82:	00 00                	add    %al,(%eax)
  101d84:	28 03                	sub    %al,(%ebx)
  101d86:	00 00                	add    %al,(%eax)
  101d88:	84 ee                	test   %ch,%dh
  101d8a:	ff                   	(bad)
  101d8b:	ff 9f 00 00 00 00    	lcall  *0x0(%edi)
  101d91:	41                   	inc    %ecx
  101d92:	0e                   	push   %cs
  101d93:	08 85 02 42 0d 05    	or     %al,0x50d4202(%ebp)
  101d99:	44                   	inc    %esp
  101d9a:	83 03 02             	addl   $0x2,(%ebx)
  101d9d:	97                   	xchg   %eax,%edi
  101d9e:	c5 c3 0c             	(bad)
  101da1:	04 04                	add    $0x4,%al
  101da3:	00 20                	add    %ah,(%eax)
  101da5:	00 00                	add    %al,(%eax)
  101da7:	00 4c 03 00          	add    %cl,0x0(%ebx,%eax,1)
  101dab:	00 ff                	add    %bh,%bh
  101dad:	ee                   	out    %al,(%dx)
  101dae:	ff                   	(bad)
  101daf:	ff 47 00             	incl   0x0(%edi)
  101db2:	00 00                	add    %al,(%eax)
  101db4:	00 41 0e             	add    %al,0xe(%ecx)
  101db7:	08 85 02 42 0d 05    	or     %al,0x50d4202(%ebp)
  101dbd:	44                   	inc    %esp
  101dbe:	83 03 7f             	addl   $0x7f,(%ebx)
  101dc1:	c5 c3 0c             	(bad)
  101dc4:	04 04                	add    $0x4,%al
  101dc6:	00 00                	add    %al,(%eax)
  101dc8:	20 00                	and    %al,(%eax)
  101dca:	00 00                	add    %al,(%eax)
  101dcc:	70 03                	jo     101dd1 <rodata+0x4b2>
  101dce:	00 00                	add    %al,(%eax)
  101dd0:	22 ef                	and    %bh,%ch
  101dd2:	ff                   	(bad)
  101dd3:	ff 47 00             	incl   0x0(%edi)
  101dd6:	00 00                	add    %al,(%eax)
  101dd8:	00 41 0e             	add    %al,0xe(%ecx)
  101ddb:	08 85 02 42 0d 05    	or     %al,0x50d4202(%ebp)
  101de1:	44                   	inc    %esp
  101de2:	83 03 7f             	addl   $0x7f,(%ebx)
  101de5:	c5 c3 0c             	(bad)
  101de8:	04 04                	add    $0x4,%al
  101dea:	00 00                	add    %al,(%eax)
  101dec:	20 00                	and    %al,(%eax)
  101dee:	00 00                	add    %al,(%eax)
  101df0:	94                   	xchg   %eax,%esp
  101df1:	03 00                	add    (%eax),%eax
  101df3:	00 45 ef             	add    %al,-0x11(%ebp)
  101df6:	ff                   	(bad)
  101df7:	ff 2d 00 00 00 00    	ljmp   *0x0
  101dfd:	41                   	inc    %ecx
  101dfe:	0e                   	push   %cs
  101dff:	08 85 02 42 0d 05    	or     %al,0x50d4202(%ebp)
  101e05:	44                   	inc    %esp
  101e06:	83 03 65             	addl   $0x65,(%ebx)
  101e09:	c5 c3 0c             	(bad)
  101e0c:	04 04                	add    $0x4,%al
  101e0e:	00 00                	add    %al,(%eax)
  101e10:	20 00                	and    %al,(%eax)
  101e12:	00 00                	add    %al,(%eax)
  101e14:	b8 03 00 00 4e       	mov    $0x4e000003,%eax
  101e19:	ef                   	out    %eax,(%dx)
  101e1a:	ff                   	(bad)
  101e1b:	ff 49 00             	decl   0x0(%ecx)
  101e1e:	00 00                	add    %al,(%eax)
  101e20:	00 41 0e             	add    %al,0xe(%ecx)
  101e23:	08 85 02 42 0d 05    	or     %al,0x50d4202(%ebp)
  101e29:	44                   	inc    %esp
  101e2a:	83 03 02             	addl   $0x2,(%ebx)
  101e2d:	41                   	inc    %ecx
  101e2e:	c5 c3 0c             	(bad)
  101e31:	04 04                	add    $0x4,%al
  101e33:	00 20                	add    %ah,(%eax)
  101e35:	00 00                	add    %al,(%eax)
  101e37:	00 dc                	add    %bl,%ah
  101e39:	03 00                	add    (%eax),%eax
  101e3b:	00 73 ef             	add    %dh,-0x11(%ebx)
  101e3e:	ff                   	(bad)
  101e3f:	ff 2d 00 00 00 00    	ljmp   *0x0
  101e45:	41                   	inc    %ecx
  101e46:	0e                   	push   %cs
  101e47:	08 85 02 42 0d 05    	or     %al,0x50d4202(%ebp)
  101e4d:	44                   	inc    %esp
  101e4e:	83 03 65             	addl   $0x65,(%ebx)
  101e51:	c5 c3 0c             	(bad)
  101e54:	04 04                	add    $0x4,%al
  101e56:	00 00                	add    %al,(%eax)
  101e58:	20 00                	and    %al,(%eax)
  101e5a:	00 00                	add    %al,(%eax)
  101e5c:	00 04 00             	add    %al,(%eax,%eax,1)
  101e5f:	00 7c ef ff          	add    %bh,-0x1(%edi,%ebp,8)
  101e63:	ff 33                	push   (%ebx)
  101e65:	00 00                	add    %al,(%eax)
  101e67:	00 00                	add    %al,(%eax)
  101e69:	41                   	inc    %ecx
  101e6a:	0e                   	push   %cs
  101e6b:	08 85 02 42 0d 05    	or     %al,0x50d4202(%ebp)
  101e71:	44                   	inc    %esp
  101e72:	83 03 6b             	addl   $0x6b,(%ebx)
  101e75:	c5 c3 0c             	(bad)
  101e78:	04 04                	add    $0x4,%al
  101e7a:	00 00                	add    %al,(%eax)
  101e7c:	20 00                	and    %al,(%eax)
  101e7e:	00 00                	add    %al,(%eax)
  101e80:	24 04                	and    $0x4,%al
  101e82:	00 00                	add    %al,(%eax)
  101e84:	8b ef                	mov    %edi,%ebp
  101e86:	ff                   	(bad)
  101e87:	ff 69 00             	ljmp   *0x0(%ecx)
  101e8a:	00 00                	add    %al,(%eax)
  101e8c:	00 41 0e             	add    %al,0xe(%ecx)
  101e8f:	08 85 02 42 0d 05    	or     %al,0x50d4202(%ebp)
  101e95:	44                   	inc    %esp
  101e96:	83 03 02             	addl   $0x2,(%ebx)
  101e99:	61                   	popa
  101e9a:	c5 c3 0c             	(bad)
  101e9d:	04 04                	add    $0x4,%al
  101e9f:	00 20                	add    %ah,(%eax)
  101ea1:	00 00                	add    %al,(%eax)
  101ea3:	00 48 04             	add    %cl,0x4(%eax)
  101ea6:	00 00                	add    %al,(%eax)
  101ea8:	d0 ef                	shr    %bh
  101eaa:	ff                   	(bad)
  101eab:	ff 53 00             	call   *0x0(%ebx)
  101eae:	00 00                	add    %al,(%eax)
  101eb0:	00 41 0e             	add    %al,0xe(%ecx)
  101eb3:	08 85 02 42 0d 05    	or     %al,0x50d4202(%ebp)
  101eb9:	44                   	inc    %esp
  101eba:	83 03 02             	addl   $0x2,(%ebx)
  101ebd:	4b                   	dec    %ebx
  101ebe:	c5 c3 0c             	(bad)
  101ec1:	04 04                	add    $0x4,%al
  101ec3:	00 20                	add    %ah,(%eax)
  101ec5:	00 00                	add    %al,(%eax)
  101ec7:	00 6c 04 00          	add    %ch,0x0(%esp,%eax,1)
  101ecb:	00 ff                	add    %bh,%bh
  101ecd:	ef                   	out    %eax,(%dx)
  101ece:	ff                   	(bad)
  101ecf:	ff 00                	incl   (%eax)
  101ed1:	01 00                	add    %eax,(%eax)
  101ed3:	00 00                	add    %al,(%eax)
  101ed5:	41                   	inc    %ecx
  101ed6:	0e                   	push   %cs
  101ed7:	08 85 02 42 0d 05    	or     %al,0x50d4202(%ebp)
  101edd:	44                   	inc    %esp
  101ede:	83 03 02             	addl   $0x2,(%ebx)
  101ee1:	f8                   	clc
  101ee2:	c5 c3 0c             	(bad)
  101ee5:	04 04                	add    $0x4,%al
  101ee7:	00 28                	add    %ch,(%eax)
  101ee9:	00 00                	add    %al,(%eax)
  101eeb:	00 90 04 00 00 db    	add    %dl,-0x24fffffc(%eax)
  101ef1:	f0 ff                	lock (bad)
  101ef3:	ff                   	(bad)
  101ef4:	3d 01 00 00 00       	cmp    $0x1,%eax
  101ef9:	41                   	inc    %ecx
  101efa:	0e                   	push   %cs
  101efb:	08 85 02 42 0d 05    	or     %al,0x50d4202(%ebp)
  101f01:	45                   	inc    %ebp
  101f02:	86 03                	xchg   %al,(%ebx)
  101f04:	83 04 03 32          	addl   $0x32,(%ebx,%eax,1)
  101f08:	01 c3                	add    %eax,%ebx
  101f0a:	41                   	inc    %ecx
  101f0b:	c6 41 c5 0c          	movb   $0xc,-0x3b(%ecx)
  101f0f:	04 04                	add    $0x4,%al
  101f11:	00 00                	add    %al,(%eax)
  101f13:	00 20                	add    %ah,(%eax)
  101f15:	00 00                	add    %al,(%eax)
  101f17:	00 bc 04 00 00 ec f1 	add    %bh,-0xe140000(%esp,%eax,1)
  101f1e:	ff                   	(bad)
  101f1f:	ff 9b 00 00 00 00    	lcall  *0x0(%ebx)
  101f25:	41                   	inc    %ecx
  101f26:	0e                   	push   %cs
  101f27:	08 85 02 42 0d 05    	or     %al,0x50d4202(%ebp)
  101f2d:	44                   	inc    %esp
  101f2e:	83 03 02             	addl   $0x2,(%ebx)
  101f31:	93                   	xchg   %eax,%ebx
  101f32:	c5 c3 0c             	(bad)
  101f35:	04 04                	add    $0x4,%al
  101f37:	00 20                	add    %ah,(%eax)
  101f39:	00 00                	add    %al,(%eax)
  101f3b:	00 e0                	add    %ah,%al
  101f3d:	04 00                	add    $0x0,%al
  101f3f:	00 63 f2             	add    %ah,-0xe(%ebx)
  101f42:	ff                   	(bad)
  101f43:	ff 2d 00 00 00 00    	ljmp   *0x0
  101f49:	41                   	inc    %ecx
  101f4a:	0e                   	push   %cs
  101f4b:	08 85 02 42 0d 05    	or     %al,0x50d4202(%ebp)
  101f51:	44                   	inc    %esp
  101f52:	83 03 65             	addl   $0x65,(%ebx)
  101f55:	c5 c3 0c             	(bad)
  101f58:	04 04                	add    $0x4,%al
  101f5a:	00 00                	add    %al,(%eax)
  101f5c:	10 00                	adc    %al,(%eax)
  101f5e:	00 00                	add    %al,(%eax)
  101f60:	04 05                	add    $0x5,%al
  101f62:	00 00                	add    %al,(%eax)
  101f64:	b7 f9                	mov    $0xf9,%bh
  101f66:	ff                   	(bad)
  101f67:	ff 04 00             	incl   (%eax,%eax,1)
  101f6a:	00 00                	add    %al,(%eax)
  101f6c:	00 00                	add    %al,(%eax)
  101f6e:	00 00                	add    %al,(%eax)
  101f70:	1c 00                	sbb    $0x0,%al
  101f72:	00 00                	add    %al,(%eax)
  101f74:	18 05 00 00 58 f2    	sbb    %al,0xf2580000
  101f7a:	ff                   	(bad)
  101f7b:	ff 8e 00 00 00 00    	decl   0x0(%esi)
  101f81:	41                   	inc    %ecx
  101f82:	0e                   	push   %cs
  101f83:	08 85 02 42 0d 05    	or     %al,0x50d4202(%ebp)
  101f89:	02 8a c5 0c 04 04    	add    0x4040cc5(%edx),%cl
  101f8f:	00 1c 00             	add    %bl,(%eax,%eax,1)
  101f92:	00 00                	add    %al,(%eax)
  101f94:	38 05 00 00 c6 f2    	cmp    %al,0xf2c60000
  101f9a:	ff                   	(bad)
  101f9b:	ff c2                	inc    %edx
  101f9d:	00 00                	add    %al,(%eax)
  101f9f:	00 00                	add    %al,(%eax)
  101fa1:	41                   	inc    %ecx
  101fa2:	0e                   	push   %cs
  101fa3:	08 85 02 42 0d 05    	or     %al,0x50d4202(%ebp)
  101fa9:	02 be c5 0c 04 04    	add    0x4040cc5(%esi),%bh
  101faf:	00 20                	add    %ah,(%eax)
  101fb1:	00 00                	add    %al,(%eax)
  101fb3:	00 58 05             	add    %bl,0x5(%eax)
  101fb6:	00 00                	add    %al,(%eax)
  101fb8:	68 f3 ff ff 2b       	push   $0x2bfffff3
  101fbd:	00 00                	add    %al,(%eax)
  101fbf:	00 00                	add    %al,(%eax)
  101fc1:	41                   	inc    %ecx
  101fc2:	0e                   	push   %cs
  101fc3:	08 85 02 42 0d 05    	or     %al,0x50d4202(%ebp)
  101fc9:	44                   	inc    %esp
  101fca:	83 03 63             	addl   $0x63,(%ebx)
  101fcd:	c5 c3 0c             	(bad)
  101fd0:	04 04                	add    $0x4,%al
  101fd2:	00 00                	add    %al,(%eax)
  101fd4:	20 00                	and    %al,(%eax)
  101fd6:	00 00                	add    %al,(%eax)
  101fd8:	7c 05                	jl     101fdf <rodata+0x6c0>
  101fda:	00 00                	add    %al,(%eax)
  101fdc:	6f                   	outsl  %ds:(%esi),(%dx)
  101fdd:	f3 ff                	repz (bad)
  101fdf:	ff 26                	jmp    *(%esi)
  101fe1:	00 00                	add    %al,(%eax)
  101fe3:	00 00                	add    %al,(%eax)
  101fe5:	41                   	inc    %ecx
  101fe6:	0e                   	push   %cs
  101fe7:	08 85 02 42 0d 05    	or     %al,0x50d4202(%ebp)
  101fed:	44                   	inc    %esp
  101fee:	83 03 5e             	addl   $0x5e,(%ebx)
  101ff1:	c5 c3 0c             	(bad)
  101ff4:	04 04                	add    $0x4,%al
  101ff6:	00 00                	add    %al,(%eax)
  101ff8:	20 00                	and    %al,(%eax)
  101ffa:	00 00                	add    %al,(%eax)
  101ffc:	a0 05 00 00 71       	mov    0x71000005,%al
  102001:	f3 ff                	repz (bad)
  102003:	ff 27                	jmp    *(%edi)
  102005:	00 00                	add    %al,(%eax)
  102007:	00 00                	add    %al,(%eax)
  102009:	41                   	inc    %ecx
  10200a:	0e                   	push   %cs
  10200b:	08 85 02 42 0d 05    	or     %al,0x50d4202(%ebp)
  102011:	44                   	inc    %esp
  102012:	83 03 5f             	addl   $0x5f,(%ebx)
  102015:	c5 c3 0c             	(bad)
  102018:	04 04                	add    $0x4,%al
  10201a:	00 00                	add    %al,(%eax)
  10201c:	1c 00                	sbb    $0x0,%al
  10201e:	00 00                	add    %al,(%eax)
  102020:	c4 05 00 00 74 f3    	les    0xf3740000,%eax
  102026:	ff                   	(bad)
  102027:	ff                   	(bad)
  102028:	3e 00 00             	add    %al,%ds:(%eax)
  10202b:	00 00                	add    %al,(%eax)
  10202d:	41                   	inc    %ecx
  10202e:	0e                   	push   %cs
  10202f:	08 85 02 42 0d 05    	or     %al,0x50d4202(%ebp)
  102035:	7a c5                	jp     101ffc <rodata+0x6dd>
  102037:	0c 04                	or     $0x4,%al
  102039:	04 00                	add    $0x0,%al
  10203b:	00 1c 00             	add    %bl,(%eax,%eax,1)
  10203e:	00 00                	add    %al,(%eax)
  102040:	e4 05                	in     $0x5,%al
  102042:	00 00                	add    %al,(%eax)
  102044:	92                   	xchg   %eax,%edx
  102045:	f3 ff                	repz (bad)
  102047:	ff 52 00             	call   *0x0(%edx)
  10204a:	00 00                	add    %al,(%eax)
  10204c:	00 41 0e             	add    %al,0xe(%ecx)
  10204f:	08 85 02 42 0d 05    	or     %al,0x50d4202(%ebp)
  102055:	02 4e c5             	add    -0x3b(%esi),%cl
  102058:	0c 04                	or     $0x4,%al
  10205a:	04 00                	add    $0x0,%al
  10205c:	1c 00                	sbb    $0x0,%al
  10205e:	00 00                	add    %al,(%eax)
  102060:	04 06                	add    $0x6,%al
  102062:	00 00                	add    %al,(%eax)
  102064:	c4                   	(bad)
  102065:	f3 ff                	repz (bad)
  102067:	ff 5e 00             	lcall  *0x0(%esi)
  10206a:	00 00                	add    %al,(%eax)
  10206c:	00 41 0e             	add    %al,0xe(%ecx)
  10206f:	08 85 02 42 0d 05    	or     %al,0x50d4202(%ebp)
  102075:	02 5a c5             	add    -0x3b(%edx),%bl
  102078:	0c 04                	or     $0x4,%al
  10207a:	04 00                	add    $0x0,%al
  10207c:	1c 00                	sbb    $0x0,%al
  10207e:	00 00                	add    %al,(%eax)
  102080:	24 06                	and    $0x6,%al
  102082:	00 00                	add    %al,(%eax)
  102084:	02 f4                	add    %ah,%dh
  102086:	ff                   	(bad)
  102087:	ff 32                	push   (%edx)
  102089:	00 00                	add    %al,(%eax)
  10208b:	00 00                	add    %al,(%eax)
  10208d:	41                   	inc    %ecx
  10208e:	0e                   	push   %cs
  10208f:	08 85 02 42 0d 05    	or     %al,0x50d4202(%ebp)
  102095:	6e                   	outsb  %ds:(%esi),(%dx)
  102096:	c5 0c 04             	lds    (%esp,%eax,1),%ecx
  102099:	04 00                	add    $0x0,%al
  10209b:	00 1c 00             	add    %bl,(%eax,%eax,1)
  10209e:	00 00                	add    %al,(%eax)
  1020a0:	44                   	inc    %esp
  1020a1:	06                   	push   %es
  1020a2:	00 00                	add    %al,(%eax)
  1020a4:	14 f4                	adc    $0xf4,%al
  1020a6:	ff                   	(bad)
  1020a7:	ff 87 00 00 00 00    	incl   0x0(%edi)
  1020ad:	41                   	inc    %ecx
  1020ae:	0e                   	push   %cs
  1020af:	08 85 02 42 0d 05    	or     %al,0x50d4202(%ebp)
  1020b5:	02 83 c5 0c 04 04    	add    0x4040cc5(%ebx),%al
  1020bb:	00 1c 00             	add    %bl,(%eax,%eax,1)
  1020be:	00 00                	add    %al,(%eax)
  1020c0:	64 06                	fs push %es
  1020c2:	00 00                	add    %al,(%eax)
  1020c4:	7b f4                	jnp    1020ba <rodata+0x79b>
  1020c6:	ff                   	(bad)
  1020c7:	ff                   	(bad)
  1020c8:	3a 00                	cmp    (%eax),%al
  1020ca:	00 00                	add    %al,(%eax)
  1020cc:	00 41 0e             	add    %al,0xe(%ecx)
  1020cf:	08 85 02 42 0d 05    	or     %al,0x50d4202(%ebp)
  1020d5:	76 c5                	jbe    10209c <rodata+0x77d>
  1020d7:	0c 04                	or     $0x4,%al
  1020d9:	04 00                	add    $0x0,%al
  1020db:	00 1c 00             	add    %bl,(%eax,%eax,1)
  1020de:	00 00                	add    %al,(%eax)
  1020e0:	84 06                	test   %al,(%esi)
  1020e2:	00 00                	add    %al,(%eax)
  1020e4:	95                   	xchg   %eax,%ebp
  1020e5:	f4                   	hlt
  1020e6:	ff                   	(bad)
  1020e7:	ff 77 00             	push   0x0(%edi)
  1020ea:	00 00                	add    %al,(%eax)
  1020ec:	00 41 0e             	add    %al,0xe(%ecx)
  1020ef:	08 85 02 42 0d 05    	or     %al,0x50d4202(%ebp)
  1020f5:	02 73 c5             	add    -0x3b(%ebx),%dh
  1020f8:	0c 04                	or     $0x4,%al
  1020fa:	04 00                	add    $0x0,%al
  1020fc:	20 00                	and    %al,(%eax)
  1020fe:	00 00                	add    %al,(%eax)
  102100:	a4                   	movsb  %ds:(%esi),%es:(%edi)
  102101:	06                   	push   %es
  102102:	00 00                	add    %al,(%eax)
  102104:	ec                   	in     (%dx),%al
  102105:	f4                   	hlt
  102106:	ff                   	(bad)
  102107:	ff 33                	push   (%ebx)
  102109:	00 00                	add    %al,(%eax)
  10210b:	00 00                	add    %al,(%eax)
  10210d:	41                   	inc    %ecx
  10210e:	0e                   	push   %cs
  10210f:	08 85 02 42 0d 05    	or     %al,0x50d4202(%ebp)
  102115:	44                   	inc    %esp
  102116:	83 03 6b             	addl   $0x6b,(%ebx)
  102119:	c5 c3 0c             	(bad)
  10211c:	04 04                	add    $0x4,%al
  10211e:	00 00                	add    %al,(%eax)
  102120:	20 00                	and    %al,(%eax)
  102122:	00 00                	add    %al,(%eax)
  102124:	c8 06 00 00          	enter  $0x6,$0x0
  102128:	fb                   	sti
  102129:	f4                   	hlt
  10212a:	ff                   	(bad)
  10212b:	ff 44 00 00          	incl   0x0(%eax,%eax,1)
  10212f:	00 00                	add    %al,(%eax)
  102131:	41                   	inc    %ecx
  102132:	0e                   	push   %cs
  102133:	08 85 02 42 0d 05    	or     %al,0x50d4202(%ebp)
  102139:	44                   	inc    %esp
  10213a:	83 03 7c             	addl   $0x7c,(%ebx)
  10213d:	c5 c3 0c             	(bad)
  102140:	04 04                	add    $0x4,%al
  102142:	00 00                	add    %al,(%eax)
  102144:	20 00                	and    %al,(%eax)
  102146:	00 00                	add    %al,(%eax)
  102148:	ec                   	in     (%dx),%al
  102149:	06                   	push   %es
  10214a:	00 00                	add    %al,(%eax)
  10214c:	1b f5                	sbb    %ebp,%esi
  10214e:	ff                   	(bad)
  10214f:	ff 24 00             	jmp    *(%eax,%eax,1)
  102152:	00 00                	add    %al,(%eax)
  102154:	00 41 0e             	add    %al,0xe(%ecx)
  102157:	08 85 02 42 0d 05    	or     %al,0x50d4202(%ebp)
  10215d:	41                   	inc    %ecx
  10215e:	83 03 5f             	addl   $0x5f,(%ebx)
  102161:	c5 c3 0c             	(bad)
  102164:	04 04                	add    $0x4,%al
  102166:	00 00                	add    %al,(%eax)
  102168:	20 00                	and    %al,(%eax)
  10216a:	00 00                	add    %al,(%eax)
  10216c:	10 07                	adc    %al,(%edi)
  10216e:	00 00                	add    %al,(%eax)
  102170:	1b f5                	sbb    %ebp,%esi
  102172:	ff                   	(bad)
  102173:	ff 2b                	ljmp   *(%ebx)
  102175:	00 00                	add    %al,(%eax)
  102177:	00 00                	add    %al,(%eax)
  102179:	41                   	inc    %ecx
  10217a:	0e                   	push   %cs
  10217b:	08 85 02 42 0d 05    	or     %al,0x50d4202(%ebp)
  102181:	44                   	inc    %esp
  102182:	83 03 63             	addl   $0x63,(%ebx)
  102185:	c5 c3 0c             	(bad)
  102188:	04 04                	add    $0x4,%al
  10218a:	00 00                	add    %al,(%eax)
  10218c:	20 00                	and    %al,(%eax)
  10218e:	00 00                	add    %al,(%eax)
  102190:	34 07                	xor    $0x7,%al
  102192:	00 00                	add    %al,(%eax)
  102194:	22 f5                	and    %ch,%dh
  102196:	ff                   	(bad)
  102197:	ff 2d 00 00 00 00    	ljmp   *0x0
  10219d:	41                   	inc    %ecx
  10219e:	0e                   	push   %cs
  10219f:	08 85 02 42 0d 05    	or     %al,0x50d4202(%ebp)
  1021a5:	44                   	inc    %esp
  1021a6:	83 03 65             	addl   $0x65,(%ebx)
  1021a9:	c5 c3 0c             	(bad)
  1021ac:	04 04                	add    $0x4,%al
  1021ae:	00 00                	add    %al,(%eax)
  1021b0:	20 00                	and    %al,(%eax)
  1021b2:	00 00                	add    %al,(%eax)
  1021b4:	58                   	pop    %eax
  1021b5:	07                   	pop    %es
  1021b6:	00 00                	add    %al,(%eax)
  1021b8:	2b f5                	sub    %ebp,%esi
  1021ba:	ff                   	(bad)
  1021bb:	ff 40 00             	incl   0x0(%eax)
  1021be:	00 00                	add    %al,(%eax)
  1021c0:	00 41 0e             	add    %al,0xe(%ecx)
  1021c3:	08 85 02 42 0d 05    	or     %al,0x50d4202(%ebp)
  1021c9:	44                   	inc    %esp
  1021ca:	83 03 78             	addl   $0x78,(%ebx)
  1021cd:	c5 c3 0c             	(bad)
  1021d0:	04 04                	add    $0x4,%al
  1021d2:	00 00                	add    %al,(%eax)
  1021d4:	20 00                	and    %al,(%eax)
  1021d6:	00 00                	add    %al,(%eax)
  1021d8:	7c 07                	jl     1021e1 <rodata+0x8c2>
  1021da:	00 00                	add    %al,(%eax)
  1021dc:	47                   	inc    %edi
  1021dd:	f5                   	cmc
  1021de:	ff                   	(bad)
  1021df:	ff 40 00             	incl   0x0(%eax)
  1021e2:	00 00                	add    %al,(%eax)
  1021e4:	00 41 0e             	add    %al,0xe(%ecx)
  1021e7:	08 85 02 42 0d 05    	or     %al,0x50d4202(%ebp)
  1021ed:	44                   	inc    %esp
  1021ee:	83 03 78             	addl   $0x78,(%ebx)
  1021f1:	c5 c3 0c             	(bad)
  1021f4:	04 04                	add    $0x4,%al
  1021f6:	00 00                	add    %al,(%eax)
  1021f8:	20 00                	and    %al,(%eax)
  1021fa:	00 00                	add    %al,(%eax)
  1021fc:	a0 07 00 00 63       	mov    0x63000007,%al
  102201:	f5                   	cmc
  102202:	ff                   	(bad)
  102203:	ff 2d 00 00 00 00    	ljmp   *0x0
  102209:	41                   	inc    %ecx
  10220a:	0e                   	push   %cs
  10220b:	08 85 02 42 0d 05    	or     %al,0x50d4202(%ebp)
  102211:	44                   	inc    %esp
  102212:	83 03 65             	addl   $0x65,(%ebx)
  102215:	c5 c3 0c             	(bad)
  102218:	04 04                	add    $0x4,%al
  10221a:	00 00                	add    %al,(%eax)
  10221c:	20 00                	and    %al,(%eax)
  10221e:	00 00                	add    %al,(%eax)
  102220:	c4 07                	les    (%edi),%eax
  102222:	00 00                	add    %al,(%eax)
  102224:	6c                   	insb   (%dx),%es:(%edi)
  102225:	f5                   	cmc
  102226:	ff                   	(bad)
  102227:	ff                   	(bad)
  102228:	39 00                	cmp    %eax,(%eax)
  10222a:	00 00                	add    %al,(%eax)
  10222c:	00 41 0e             	add    %al,0xe(%ecx)
  10222f:	08 85 02 42 0d 05    	or     %al,0x50d4202(%ebp)
  102235:	44                   	inc    %esp
  102236:	83 03 71             	addl   $0x71,(%ebx)
  102239:	c5 c3 0c             	(bad)
  10223c:	04 04                	add    $0x4,%al
  10223e:	00 00                	add    %al,(%eax)
  102240:	20 00                	and    %al,(%eax)
  102242:	00 00                	add    %al,(%eax)
  102244:	e8 07 00 00 81       	call   81102250 <a_fixed_size_desc+0x80fffe50>
  102249:	f5                   	cmc
  10224a:	ff                   	(bad)
  10224b:	ff 27                	jmp    *(%edi)
  10224d:	00 00                	add    %al,(%eax)
  10224f:	00 00                	add    %al,(%eax)
  102251:	41                   	inc    %ecx
  102252:	0e                   	push   %cs
  102253:	08 85 02 42 0d 05    	or     %al,0x50d4202(%ebp)
  102259:	44                   	inc    %esp
  10225a:	83 03 5f             	addl   $0x5f,(%ebx)
  10225d:	c5 c3 0c             	(bad)
  102260:	04 04                	add    $0x4,%al
  102262:	00 00                	add    %al,(%eax)
  102264:	20 00                	and    %al,(%eax)
  102266:	00 00                	add    %al,(%eax)
  102268:	0c 08                	or     $0x8,%al
  10226a:	00 00                	add    %al,(%eax)
  10226c:	84 f5                	test   %dh,%ch
  10226e:	ff                   	(bad)
  10226f:	ff 27                	jmp    *(%edi)
  102271:	00 00                	add    %al,(%eax)
  102273:	00 00                	add    %al,(%eax)
  102275:	41                   	inc    %ecx
  102276:	0e                   	push   %cs
  102277:	08 85 02 42 0d 05    	or     %al,0x50d4202(%ebp)
  10227d:	44                   	inc    %esp
  10227e:	83 03 5f             	addl   $0x5f,(%ebx)
  102281:	c5 c3 0c             	(bad)
  102284:	04 04                	add    $0x4,%al
  102286:	00 00                	add    %al,(%eax)
  102288:	20 00                	and    %al,(%eax)
  10228a:	00 00                	add    %al,(%eax)
  10228c:	30 08                	xor    %cl,(%eax)
  10228e:	00 00                	add    %al,(%eax)
  102290:	87 f5                	xchg   %esi,%ebp
  102292:	ff                   	(bad)
  102293:	ff 33                	push   (%ebx)
  102295:	00 00                	add    %al,(%eax)
  102297:	00 00                	add    %al,(%eax)
  102299:	41                   	inc    %ecx
  10229a:	0e                   	push   %cs
  10229b:	08 85 02 42 0d 05    	or     %al,0x50d4202(%ebp)
  1022a1:	44                   	inc    %esp
  1022a2:	83 03 6b             	addl   $0x6b,(%ebx)
  1022a5:	c5 c3 0c             	(bad)
  1022a8:	04 04                	add    $0x4,%al
  1022aa:	00 00                	add    %al,(%eax)
  1022ac:	20 00                	and    %al,(%eax)
  1022ae:	00 00                	add    %al,(%eax)
  1022b0:	54                   	push   %esp
  1022b1:	08 00                	or     %al,(%eax)
  1022b3:	00 96 f5 ff ff 27    	add    %dl,0x27fffff5(%esi)
  1022b9:	00 00                	add    %al,(%eax)
  1022bb:	00 00                	add    %al,(%eax)
  1022bd:	41                   	inc    %ecx
  1022be:	0e                   	push   %cs
  1022bf:	08 85 02 42 0d 05    	or     %al,0x50d4202(%ebp)
  1022c5:	44                   	inc    %esp
  1022c6:	83 03 5f             	addl   $0x5f,(%ebx)
  1022c9:	c5 c3 0c             	(bad)
  1022cc:	04 04                	add    $0x4,%al
  1022ce:	00 00                	add    %al,(%eax)
  1022d0:	20 00                	and    %al,(%eax)
  1022d2:	00 00                	add    %al,(%eax)
  1022d4:	78 08                	js     1022de <rodata+0x9bf>
  1022d6:	00 00                	add    %al,(%eax)
  1022d8:	99                   	cltd
  1022d9:	f5                   	cmc
  1022da:	ff                   	(bad)
  1022db:	ff 2d 00 00 00 00    	ljmp   *0x0
  1022e1:	41                   	inc    %ecx
  1022e2:	0e                   	push   %cs
  1022e3:	08 85 02 42 0d 05    	or     %al,0x50d4202(%ebp)
  1022e9:	44                   	inc    %esp
  1022ea:	83 03 65             	addl   $0x65,(%ebx)
  1022ed:	c5 c3 0c             	(bad)
  1022f0:	04 04                	add    $0x4,%al
  1022f2:	00 00                	add    %al,(%eax)
  1022f4:	20 00                	and    %al,(%eax)
  1022f6:	00 00                	add    %al,(%eax)
  1022f8:	9c                   	pushf
  1022f9:	08 00                	or     %al,(%eax)
  1022fb:	00 a2 f5 ff ff 25    	add    %ah,0x25fffff5(%edx)
  102301:	00 00                	add    %al,(%eax)
  102303:	00 00                	add    %al,(%eax)
  102305:	41                   	inc    %ecx
  102306:	0e                   	push   %cs
  102307:	08 85 02 42 0d 05    	or     %al,0x50d4202(%ebp)
  10230d:	44                   	inc    %esp
  10230e:	83 03 5d             	addl   $0x5d,(%ebx)
  102311:	c5 c3 0c             	(bad)
  102314:	04 04                	add    $0x4,%al
  102316:	00 00                	add    %al,(%eax)
  102318:	20 00                	and    %al,(%eax)
  10231a:	00 00                	add    %al,(%eax)
  10231c:	c0 08 00             	rorb   $0x0,(%eax)
  10231f:	00 a3 f5 ff ff 25    	add    %ah,0x25fffff5(%ebx)
  102325:	00 00                	add    %al,(%eax)
  102327:	00 00                	add    %al,(%eax)
  102329:	41                   	inc    %ecx
  10232a:	0e                   	push   %cs
  10232b:	08 85 02 42 0d 05    	or     %al,0x50d4202(%ebp)
  102331:	44                   	inc    %esp
  102332:	83 03 5d             	addl   $0x5d,(%ebx)
  102335:	c5 c3 0c             	(bad)
  102338:	04 04                	add    $0x4,%al
  10233a:	00 00                	add    %al,(%eax)
  10233c:	20 00                	and    %al,(%eax)
  10233e:	00 00                	add    %al,(%eax)
  102340:	e4 08                	in     $0x8,%al
  102342:	00 00                	add    %al,(%eax)
  102344:	a4                   	movsb  %ds:(%esi),%es:(%edi)
  102345:	f5                   	cmc
  102346:	ff                   	(bad)
  102347:	ff 2b                	ljmp   *(%ebx)
  102349:	00 00                	add    %al,(%eax)
  10234b:	00 00                	add    %al,(%eax)
  10234d:	41                   	inc    %ecx
  10234e:	0e                   	push   %cs
  10234f:	08 85 02 42 0d 05    	or     %al,0x50d4202(%ebp)
  102355:	44                   	inc    %esp
  102356:	83 03 63             	addl   $0x63,(%ebx)
  102359:	c5 c3 0c             	(bad)
  10235c:	04 04                	add    $0x4,%al
	...

Disassemblamento della sezione .note.gnu.property:

00102360 <.note.gnu.property>:
  102360:	04 00                	add    $0x0,%al
  102362:	00 00                	add    %al,(%eax)
  102364:	18 00                	sbb    %al,(%eax)
  102366:	00 00                	add    %al,(%eax)
  102368:	05 00 00 00 47       	add    $0x47000000,%eax
  10236d:	4e                   	dec    %esi
  10236e:	55                   	push   %ebp
  10236f:	00 01                	add    %al,(%ecx)
  102371:	00 01                	add    %al,(%ecx)
  102373:	c0 04 00 00          	rolb   $0x0,(%eax,%eax,1)
  102377:	00 01                	add    %al,(%ecx)
  102379:	00 00                	add    %al,(%eax)
  10237b:	00 02                	add    %al,(%edx)
  10237d:	00 01                	add    %al,(%ecx)
  10237f:	c0 04 00 00          	rolb   $0x0,(%eax,%eax,1)
  102383:	00 00                	add    %al,(%eax)
  102385:	00 00                	add    %al,(%eax)
	...

Disassemblamento della sezione .data:

001023a0 <user_process>:
  1023a0:	70 72                	jo     102414 <a_fixed_size_desc+0x14>
  1023a2:	6f                   	outsl  %ds:(%esi),(%dx)
  1023a3:	63 65 73             	arpl   %sp,0x73(%ebp)
  1023a6:	73 31                	jae    1023d9 <user_process+0x39>
  1023a8:	00 00                	add    %al,(%eax)
  1023aa:	00 00                	add    %al,(%eax)
  1023ac:	01 00                	add    %eax,(%eax)
  1023ae:	00 00                	add    %al,(%eax)
  1023b0:	00 00                	add    %al,(%eax)
  1023b2:	10 00                	adc    %al,(%eax)
  1023b4:	00 00                	add    %al,(%eax)
  1023b6:	60                   	pusha
  1023b7:	00 70 72             	add    %dh,0x72(%eax)
  1023ba:	6f                   	outsl  %ds:(%esi),(%dx)
  1023bb:	63 65 73             	arpl   %sp,0x73(%ebp)
  1023be:	73 32                	jae    1023f2 <_GLOBAL_OFFSET_TABLE_+0x2>
  1023c0:	00 00                	add    %al,(%eax)
  1023c2:	00 00                	add    %al,(%eax)
  1023c4:	02 00                	add    (%eax),%al
  1023c6:	00 00                	add    %al,(%eax)
  1023c8:	00 00                	add    %al,(%eax)
  1023ca:	10 00                	adc    %al,(%eax)
  1023cc:	00 00                	add    %al,(%eax)
  1023ce:	70 00                	jo     1023d0 <user_process+0x30>
  1023d0:	70 72                	jo     102444 <a_fixed_size_desc+0x44>
  1023d2:	6f                   	outsl  %ds:(%esi),(%dx)
  1023d3:	63 65 73             	arpl   %sp,0x73(%ebp)
  1023d6:	73 33                	jae    10240b <a_fixed_size_desc+0xb>
  1023d8:	00 00                	add    %al,(%eax)
  1023da:	00 00                	add    %al,(%eax)
  1023dc:	03 00                	add    (%eax),%eax
  1023de:	00 00                	add    %al,(%eax)
  1023e0:	00 00                	add    %al,(%eax)
  1023e2:	10 00                	adc    %al,(%eax)
  1023e4:	00 00                	add    %al,(%eax)
  1023e6:	80 00              	addb   $0xff,(%eax)

001023e8 <malloc_initialized>:
  1023e8:	ff                   	(bad)
  1023e9:	ff                   	(bad)
  1023ea:	ff                   	(bad)
  1023eb:	ff                 	incl   (%ecx)

001023ec <seed.0>:
  1023ec:	01 00                	add    %eax,(%eax)
	...

Disassemblamento della sezione .got.plt:

001023f0 <_GLOBAL_OFFSET_TABLE_>:
	...

Disassemblamento della sezione .debug_info:

00000000 <.debug_info>:
       0:	2d 03 00 00 04       	sub    $0x4000003,%eax
       5:	00 00                	add    %al,(%eax)
       7:	00 00                	add    %al,(%eax)
       9:	00 04 01             	add    %al,(%ecx,%eax,1)
       c:	7a 00                	jp     e <main-0xffff2>
       e:	00 00                	add    %al,(%eax)
      10:	0c 29                	or     $0x29,%al
      12:	00 00                	add    %al,(%eax)
      14:	00 18                	add    %bl,(%eax)
      16:	01 00                	add    %eax,(%eax)
      18:	00 00                	add    %al,(%eax)
      1a:	00 10                	add    %dl,(%eax)
      1c:	00 05 05 00 00 00    	add    %al,0x5
      22:	00 00                	add    %al,(%eax)
      24:	00 02                	add    %al,(%edx)
      26:	02 07                	add    (%edi),%al
      28:	44                   	inc    %esp
      29:	00 00                	add    %al,(%eax)
      2b:	00 02                	add    %al,(%edx)
      2d:	04 07                	add    $0x7,%al
      2f:	4a                   	dec    %edx
      30:	00 00                	add    %al,(%eax)
      32:	00 03                	add    %al,(%ebx)
      34:	04 05                	add    $0x5,%al
      36:	69 6e 74 00 02 01 06 	imul   $0x6010200,0x74(%esi),%ebp
      3d:	2c 04                	sub    $0x4,%al
      3f:	00 00                	add    %al,(%eax)
      41:	04 12                	add    $0x12,%al
      43:	00 00                	add    %al,(%eax)
      45:	00 18                	add    %bl,(%eax)
      47:	02 08                	add    (%eax),%cl
      49:	10 82 00 00 00 05    	adc    %al,0x5000000(%edx)
      4f:	52                   	push   %edx
      50:	05 00 00 02 0a       	add    $0xa020000,%eax
      55:	07                   	pop    %es
      56:	82 00 00             	addb   $0x0,(%eax)
      59:	00 00                	add    %al,(%eax)
      5b:	06                   	push   %es
      5c:	69 64 00 02 0b 0f 2c 	imul   $0x2c0f0b,0x2(%eax,%eax,1),%esp
      63:	00 
      64:	00 00                	add    %al,(%eax)
      66:	0c 05                	or     $0x5,%al
      68:	6b 03 00             	imul   $0x0,(%ebx),%eax
      6b:	00 02                	add    %al,(%edx)
      6d:	0c 0f                	or     $0xf,%al
      6f:	2c 00                	sub    $0x0,%al
      71:	00 00                	add    %al,(%eax)
      73:	10 05 0d 01 00 00    	adc    %al,0x10d
      79:	02 0d 0f 2c 00 00    	add    0x2c0f,%cl
      7f:	00 14 00             	add    %dl,(%eax,%eax,1)
      82:	07                   	pop    %es
      83:	3a 00                	cmp    (%eax),%al
      85:	00 00                	add    %al,(%eax)
      87:	92                   	xchg   %eax,%edx
      88:	00 00                	add    %al,(%eax)
      8a:	00 08                	add    %cl,(%eax)
      8c:	2c 00                	sub    $0x0,%al
      8e:	00 00                	add    %al,(%eax)
      90:	09 00                	or     %eax,(%eax)
      92:	09 ee                	or     %ebp,%esi
      94:	00 00                	add    %al,(%eax)
      96:	00 02                	add    %al,(%edx)
      98:	0f 01 41 00          	sgdtl  0x0(%ecx)
      9c:	00 00                	add    %al,(%eax)
      9e:	07                   	pop    %es
      9f:	92                   	xchg   %eax,%edx
      a0:	00 00                	add    %al,(%eax)
      a2:	00 ae 00 00 00 08    	add    %ch,0x8000000(%esi)
      a8:	2c 00                	sub    $0x0,%al
      aa:	00 00                	add    %al,(%eax)
      ac:	02 00                	add    (%eax),%al
      ae:	0a 14 00             	or     (%eax,%eax,1),%dl
      b1:	00 00                	add    %al,(%eax)
      b3:	02 11                	add    (%ecx),%dl
      b5:	10 9e 00 00 00 05    	adc    %bl,0x5000000(%esi)
      bb:	03 a0 23 10 00 0b    	add    0xb001023(%eax),%esp
      c1:	0c 00                	or     $0x0,%al
      c3:	00 00                	add    %al,(%eax)
      c5:	03 6e 05             	add    0x5(%esi),%ebp
      c8:	33 00                	xor    (%eax),%eax
      ca:	00 00                	add    %al,(%eax)
      cc:	d6                   	(bad)
      cd:	00 00                	add    %al,(%eax)
      cf:	00 0c d6             	add    %cl,(%esi,%edx,8)
      d2:	00 00                	add    %al,(%eax)
      d4:	00 00                	add    %al,(%eax)
      d6:	0d 04 3a 00 00       	or     $0x3a04,%eax
      db:	00 0e                	add    %cl,(%esi)
      dd:	f4                   	hlt
      de:	02 00                	add    (%eax),%al
      e0:	00 03                	add    %al,(%ebx)
      e2:	5a                   	pop    %edx
      e3:	06                   	push   %es
      e4:	ee                   	out    %al,(%dx)
      e5:	00 00                	add    %al,(%eax)
      e7:	00 0c ee             	add    %cl,(%esi,%ebp,8)
      ea:	00 00                	add    %al,(%eax)
      ec:	00 00                	add    %al,(%eax)
      ee:	0f 04                	(bad)
      f0:	10 fd                	adc    %bh,%ch
      f2:	00 00                	add    %al,(%eax)
      f4:	00 03                	add    %al,(%ebx)
      f6:	69 05 33 00 00 00 02 	imul   $0x102,0x33,%eax
      fd:	01 00 00 
     100:	11 00                	adc    %eax,(%eax)
     102:	0e                   	push   %cs
     103:	07                   	pop    %es
     104:	00 00                	add    %al,(%eax)
     106:	00 03                	add    %al,(%ebx)
     108:	58                   	pop    %eax
     109:	06                   	push   %es
     10a:	14 01                	adc    $0x1,%al
     10c:	00 00                	add    %al,(%eax)
     10e:	0c 33                	or     $0x33,%al
     110:	00 00                	add    %al,(%eax)
     112:	00 00                	add    %al,(%eax)
     114:	0b e4                	or     %esp,%esp
     116:	00 00                	add    %al,(%eax)
     118:	00 03                	add    %al,(%ebx)
     11a:	67 05 33 00 00 00    	addr16 add $0x33,%eax
     120:	2f                   	das
     121:	01 00                	add    %eax,(%eax)
     123:	00 0c d6             	add    %cl,(%esi,%edx,8)
     126:	00 00                	add    %al,(%eax)
     128:	00 0c 2f             	add    %cl,(%edi,%ebp,1)
     12b:	01 00                	add    %eax,(%eax)
     12d:	00 00                	add    %al,(%eax)
     12f:	0d 04 d6 00 00       	or     $0xd604,%eax
     134:	00 0b                	add    %cl,(%ebx)
     136:	03 01                	add    (%ecx),%eax
     138:	00 00                	add    %al,(%eax)
     13a:	03 75 05             	add    0x5(%ebp),%esi
     13d:	33 00                	xor    (%eax),%eax
     13f:	00 00                	add    %al,(%eax)
     141:	4b                   	dec    %ebx
     142:	01 00                	add    %eax,(%eax)
     144:	00 0c 33             	add    %cl,(%ebx,%esi,1)
     147:	00 00                	add    %al,(%eax)
     149:	00 00                	add    %al,(%eax)
     14b:	0b 21                	or     (%ecx),%esp
     14d:	00 00                	add    %al,(%eax)
     14f:	00 03                	add    %al,(%ebx)
     151:	73 05                	jae    158 <main-0xffea8>
     153:	33 00                	xor    (%eax),%eax
     155:	00 00                	add    %al,(%eax)
     157:	66 01 00             	add    %ax,(%eax)
     15a:	00 0c 33             	add    %cl,(%ebx,%esi,1)
     15d:	00 00                	add    %al,(%eax)
     15f:	00 0c 33             	add    %cl,(%ebx,%esi,1)
     162:	00 00                	add    %al,(%eax)
     164:	00 00                	add    %al,(%eax)
     166:	10 00                	adc    %al,(%eax)
     168:	00 00                	add    %al,(%eax)
     16a:	00 03                	add    %al,(%ebx)
     16c:	71 10                	jno    17e <main-0xffe82>
     16e:	25 00 00 00 78       	and    $0x78000000,%eax
     173:	01 00                	add    %eax,(%eax)
     175:	00 11                	add    %dl,(%ecx)
     177:	00 10                	add    %dl,(%eax)
     179:	e9 00 00 00 03       	jmp    300017e <a_fixed_size_desc+0x2efdd7e>
     17e:	68 05 33 00 00       	push   $0x3305
     183:	00 8a 01 00 00 11    	add    %cl,0x11000001(%edx)
     189:	00 0e                	add    %cl,(%esi)
     18b:	3e 00 00             	add    %al,%ds:(%eax)
     18e:	00 03                	add    %al,(%ebx)
     190:	51                   	push   %ecx
     191:	06                   	push   %es
     192:	a1 01 00 00 0c       	mov    0xc000001,%eax
     197:	d6                   	(bad)
     198:	00 00                	add    %al,(%eax)
     19a:	00 0c ee             	add    %cl,(%esi,%ebp,8)
     19d:	00 00                	add    %al,(%eax)
     19f:	00 00                	add    %al,(%eax)
     1a1:	12 44 01 00          	adc    0x0(%ecx,%eax,1),%al
     1a5:	00 03                	add    %al,(%ebx)
     1a7:	7c 06                	jl     1af <main-0xffe51>
     1a9:	af                   	scas   %es:(%edi),%eax
     1aa:	01 00                	add    %eax,(%eax)
     1ac:	00 11                	add    %dl,(%ecx)
     1ae:	00 10                	add    %dl,(%eax)
     1b0:	31 00                	xor    %eax,(%eax)
     1b2:	00 00                	add    %al,(%eax)
     1b4:	01 13                	add    %edx,(%ebx)
     1b6:	02 33                	add    (%ebx),%dh
     1b8:	00 00                	add    %al,(%eax)
     1ba:	00 c1                	add    %al,%cl
     1bc:	01 00                	add    %eax,(%eax)
     1be:	00 11                	add    %dl,(%ecx)
     1c0:	00 0b                	add    %cl,(%ebx)
     1c2:	79 02                	jns    1c6 <main-0xffe3a>
     1c4:	00 00                	add    %al,(%eax)
     1c6:	03 59 07             	add    0x7(%ecx),%ebx
     1c9:	ee                   	out    %al,(%dx)
     1ca:	00 00                	add    %al,(%eax)
     1cc:	00 d7                	add    %dl,%bh
     1ce:	01 00                	add    %eax,(%eax)
     1d0:	00 0c 2c             	add    %cl,(%esp,%ebp,1)
     1d3:	00 00                	add    %al,(%eax)
     1d5:	00 00                	add    %al,(%eax)
     1d7:	13 63 64             	adc    0x64(%ebx),%esp
     1da:	00 01                	add    %al,(%ecx)
     1dc:	89 0d a0 04 10 00    	mov    %ecx,0x1004a0
     1e2:	65 00 00             	add    %al,%gs:(%eax)
     1e5:	00 01                	add    %al,(%ecx)
     1e7:	9c                   	pushf
     1e8:	23 02                	and    (%edx),%eax
     1ea:	00 00                	add    %al,(%eax)
     1ec:	14 b6                	adc    $0xb6,%al
     1ee:	01 00                	add    %eax,(%eax)
     1f0:	00 01                	add    %al,(%ecx)
     1f2:	89 16                	mov    %edx,(%esi)
     1f4:	d6                   	(bad)
     1f5:	00 00                	add    %al,(%eax)
     1f7:	00 02                	add    %al,(%edx)
     1f9:	91                   	xchg   %eax,%ecx
     1fa:	00 15 72 65 74 00    	add    %dl,0x746572
     200:	01 8b 06 33 00 00    	add    %ecx,0x3306(%ebx)
     206:	00 02                	add    %al,(%edx)
     208:	91                   	xchg   %eax,%ecx
     209:	6c                   	insb   (%dx),%es:(%edi)
     20a:	16                   	push   %ss
     20b:	c9                   	leave
     20c:	04 10                	add    $0x10,%al
     20e:	00 36                	add    %dh,(%esi)
     210:	00 00                	add    %al,(%eax)
     212:	00 17                	add    %dl,(%edi)
     214:	31 00                	xor    %eax,(%eax)
     216:	00 00                	add    %al,(%eax)
     218:	01 13                	add    %edx,(%ebx)
     21a:	02 33                	add    (%ebx),%dh
     21c:	00 00                	add    %al,(%eax)
     21e:	00 11                	add    %dl,(%ecx)
     220:	00 00                	add    %al,(%eax)
     222:	00 18                	add    %bl,(%eax)
     224:	75 00                	jne    226 <main-0xffdda>
     226:	00 00                	add    %al,(%eax)
     228:	01 06                	add    %eax,(%esi)
     22a:	05 33 00 00 00       	add    $0x33,%eax
     22f:	00 00                	add    %al,(%eax)
     231:	10 00                	adc    %al,(%eax)
     233:	a0 04 00 00 01       	mov    0x1000004,%al
     238:	9c                   	pushf
     239:	24 03                	and    $0x3,%al
     23b:	00 00                	add    %al,(%eax)
     23d:	14 38                	adc    $0x38,%al
     23f:	00 00                	add    %al,(%eax)
     241:	00 01                	add    %al,(%ecx)
     243:	06                   	push   %es
     244:	0f 33                	rdpmc
     246:	00 00                	add    %al,(%eax)
     248:	00 02                	add    %al,(%edx)
     24a:	91                   	xchg   %eax,%ecx
     24b:	00 14 65 00 00 00 01 	add    %dl,0x1000000(,%eiz,2)
     252:	06                   	push   %es
     253:	1c 2f                	sbb    $0x2f,%al
     255:	01 00                	add    %eax,(%eax)
     257:	00 02                	add    %al,(%edx)
     259:	91                   	xchg   %eax,%ecx
     25a:	04 15                	add    $0x15,%al
     25c:	72 65                	jb     2c3 <main-0xffd3d>
     25e:	74 00                	je     260 <main-0xffda0>
     260:	01 08                	add    %ecx,(%eax)
     262:	06                   	push   %es
     263:	33 00                	xor    (%eax),%eax
     265:	00 00                	add    %al,(%eax)
     267:	03 75 bc             	add    -0x44(%ebp),%esi
     26a:	7f 15                	jg     281 <main-0xffd7f>
     26c:	70 69                	jo     2d7 <main-0xffd29>
     26e:	64 00 01             	add    %al,%fs:(%ecx)
     271:	09 0f                	or     %ecx,(%edi)
     273:	2c 00                	sub    $0x0,%al
     275:	00 00                	add    %al,(%eax)
     277:	02 75 44             	add    0x44(%ebp),%dh
     27a:	19 6b 00             	sbb    %ebp,0x0(%ebx)
     27d:	00 00                	add    %al,(%eax)
     27f:	01 09                	add    %ecx,(%ecx)
     281:	13 2c 00             	adc    (%eax,%eax,1),%ebp
     284:	00 00                	add    %al,(%eax)
     286:	02 75 40             	add    0x40(%ebp),%dh
     289:	19 57 00             	sbb    %edx,0x0(%edi)
     28c:	00 00                	add    %al,(%eax)
     28e:	01 0a                	add    %ecx,(%edx)
     290:	0f 2c 00             	cvttps2pi (%eax),%mm0
     293:	00 00                	add    %al,(%eax)
     295:	02 75 64             	add    0x64(%ebp),%dh
     298:	15 6c 65 6e 00       	adc    $0x6e656c,%eax
     29d:	01 0b                	add    %ecx,(%ebx)
     29f:	0f 2c 00             	cvttps2pi (%eax),%mm0
     2a2:	00 00                	add    %al,(%eax)
     2a4:	02 75 48             	add    0x48(%ebp),%dh
     2a7:	15 69 00 01 0b       	adc    $0xb010069,%eax
     2ac:	13 2c 00             	adc    (%eax,%eax,1),%ebp
     2af:	00 00                	add    %al,(%eax)
     2b1:	02 75 60             	add    0x60(%ebp),%dh
     2b4:	15 6b 00 01 0b       	adc    $0xb01006b,%eax
     2b9:	15 2c 00 00 00       	adc    $0x2c,%eax
     2be:	02 75 5c             	add    0x5c(%ebp),%dh
     2c1:	15 6a 00 01 0b       	adc    $0xb01006a,%eax
     2c6:	17                   	pop    %ss
     2c7:	2c 00                	sub    $0x0,%al
     2c9:	00 00                	add    %al,(%eax)
     2cb:	02 75 58             	add    0x58(%ebp),%dh
     2ce:	19 39                	sbb    %edi,(%ecx)
     2d0:	00 00                	add    %al,(%eax)
     2d2:	00 01                	add    %al,(%ecx)
     2d4:	0c 0f                	or     $0xf,%al
     2d6:	2c 00                	sub    $0x0,%al
     2d8:	00 00                	add    %al,(%eax)
     2da:	02 75 54             	add    0x54(%ebp),%dh
     2dd:	15 63 6d 64 00       	adc    $0x646d63,%eax
     2e2:	01 0d 07 24 03 00    	add    %ecx,0x32407
     2e8:	00 03                	add    %al,(%ebx)
     2ea:	75 d8                	jne    2c4 <main-0xffd3c>
     2ec:	7e 19                	jle    307 <main-0xffcf9>
     2ee:	66 00 00             	data16 add %al,(%eax)
     2f1:	00 01                	add    %al,(%ecx)
     2f3:	0e                   	push   %cs
     2f4:	09 2f                	or     %ebp,(%edi)
     2f6:	01 00                	add    %eax,(%eax)
     2f8:	00 02                	add    %al,(%edx)
     2fa:	75 50                	jne    34c <main-0xffcb4>
     2fc:	1a 63 00             	sbb    0x0(%ebx),%ah
     2ff:	01 0f                	add    %ecx,(%edi)
     301:	07                   	pop    %es
     302:	3a 00                	cmp    (%eax),%al
     304:	00 00                	add    %al,(%eax)
     306:	19 40 02             	sbb    %eax,0x2(%eax)
     309:	00 00                	add    %al,(%eax)
     30b:	01 10                	add    %edx,(%eax)
     30d:	0f 2c 00             	cvttps2pi (%eax),%mm0
     310:	00 00                	add    %al,(%eax)
     312:	02 75 4c             	add    0x4c(%ebp),%dh
     315:	17                   	pop    %ss
     316:	31 00                	xor    %eax,(%eax)
     318:	00 00                	add    %al,(%eax)
     31a:	01 13                	add    %edx,(%ebx)
     31c:	02 33                	add    (%ebx),%dh
     31e:	00 00                	add    %al,(%eax)
     320:	00 11                	add    %dl,(%ecx)
     322:	00 00                	add    %al,(%eax)
     324:	1b 3a                	sbb    (%edx),%edi
     326:	00 00                	add    %al,(%eax)
     328:	00 08                	add    %cl,(%eax)
     32a:	2c 00                	sub    $0x0,%al
     32c:	00 00                	add    %al,(%eax)
     32e:	63 00                	arpl   %ax,(%eax)
     330:	00 cb                	add    %cl,%bl
     332:	00 00                	add    %al,(%eax)
     334:	00 04 00             	add    %al,(%eax,%eax,1)
     337:	9e                   	sahf
     338:	01 00                	add    %eax,(%eax)
     33a:	00 04 01             	add    %al,(%ecx,%eax,1)
     33d:	7a 00                	jp     33f <main-0xffcc1>
     33f:	00 00                	add    %al,(%eax)
     341:	0c 9f                	or     $0x9f,%al
     343:	01 00                	add    %eax,(%eax)
     345:	00 62 01             	add    %ah,0x1(%edx)
     348:	00 00                	add    %al,(%eax)
     34a:	05 05 10 00 6f       	add    $0x6f001005,%eax
     34f:	00 00                	add    %al,(%eax)
     351:	00 45 02             	add    %al,0x2(%ebp)
     354:	00 00                	add    %al,(%eax)
     356:	02 02                	add    (%edx),%al
     358:	07                   	pop    %es
     359:	44                   	inc    %esp
     35a:	00 00                	add    %al,(%eax)
     35c:	00 02                	add    %al,(%edx)
     35e:	04 07                	add    $0x7,%al
     360:	4a                   	dec    %edx
     361:	00 00                	add    %al,(%eax)
     363:	00 03                	add    %al,(%ebx)
     365:	04 05                	add    $0x5,%al
     367:	69 6e 74 00 02 01 06 	imul   $0x6010200,0x74(%esi),%ebp
     36e:	2c 04                	sub    $0x4,%al
     370:	00 00                	add    %al,(%eax)
     372:	04 53                	add    $0x53,%al
     374:	01 00                	add    %eax,(%eax)
     376:	00 01                	add    %al,(%ecx)
     378:	11 06                	adc    %eax,(%esi)
     37a:	4f                   	dec    %edi
     37b:	05 10 00 25 00       	add    $0x250010,%eax
     380:	00 00                	add    %al,(%eax)
     382:	01 9c 76 00 00 00 05 	add    %ebx,0x5000000(%esi,%esi,2)
     389:	70 69                	jo     3f4 <main-0xffc0c>
     38b:	64 00 01             	add    %al,%fs:(%ecx)
     38e:	11 06                	adc    %eax,(%esi)
     390:	33 00                	xor    (%eax),%eax
     392:	00 00                	add    %al,(%eax)
     394:	02 91 00 06 98 01    	add    0x1980600(%ecx),%dl
     39a:	00 00                	add    %al,(%eax)
     39c:	01 13                	add    %edx,(%ebx)
     39e:	0f 76 00             	pcmpeqd (%eax),%mm0
     3a1:	00 00                	add    %al,(%eax)
     3a3:	02 91 70 00 07 2c    	add    0x2c070070(%ecx),%dl
     3a9:	00 00                	add    %al,(%eax)
     3ab:	00 86 00 00 00 08    	add    %al,0x8000000(%esi)
     3b1:	2c 00                	sub    $0x0,%al
     3b3:	00 00                	add    %al,(%eax)
     3b5:	00 00                	add    %al,(%eax)
     3b7:	04 44                	add    $0x44,%al
     3b9:	01 00                	add    %eax,(%eax)
     3bb:	00 01                	add    %al,(%ecx)
     3bd:	0a 06                	or     (%esi),%al
     3bf:	2a 05 10 00 25 00    	sub    0x250010,%al
     3c5:	00 00                	add    %al,(%eax)
     3c7:	01 9c ac 00 00 00 06 	add    %ebx,0x6000000(%esp,%ebp,4)
     3ce:	98                   	cwtl
     3cf:	01 00                	add    %eax,(%eax)
     3d1:	00 01                	add    %al,(%ecx)
     3d3:	0c 0f                	or     $0xf,%al
     3d5:	76 00                	jbe    3d7 <main-0xffc29>
     3d7:	00 00                	add    %al,(%eax)
     3d9:	02 91 70 00 09 92    	add    -0x6df6ff90(%ecx),%dl
     3df:	01 00                	add    %eax,(%eax)
     3e1:	00 01                	add    %al,(%ecx)
     3e3:	03 06                	add    (%esi),%eax
     3e5:	05 05 10 00 25       	add    $0x25001005,%eax
     3ea:	00 00                	add    %al,(%eax)
     3ec:	00 01                	add    %al,(%ecx)
     3ee:	9c                   	pushf
     3ef:	06                   	push   %es
     3f0:	98                   	cwtl
     3f1:	01 00                	add    %eax,(%eax)
     3f3:	00 01                	add    %al,(%ecx)
     3f5:	05 0f 76 00 00       	add    $0x760f,%eax
     3fa:	00 02                	add    %al,(%edx)
     3fc:	91                   	xchg   %eax,%ecx
     3fd:	70 00                	jo     3ff <main-0xffc01>
     3ff:	00 d3                	add    %dl,%bl
     401:	00 00                	add    %al,(%eax)
     403:	00 04 00             	add    %al,(%eax,%eax,1)
     406:	2e 02 00             	add    %cs:(%eax),%al
     409:	00 04 01             	add    %al,(%ecx,%eax,1)
     40c:	7a 00                	jp     40e <main-0xffbf2>
     40e:	00 00                	add    %al,(%eax)
     410:	0c bb                	or     $0xbb,%al
     412:	01 00                	add    %eax,(%eax)
     414:	00 62 01             	add    %ah,0x1(%edx)
     417:	00 00                	add    %al,(%eax)
     419:	74 05                	je     420 <main-0xffbe0>
     41b:	10 00                	adc    %al,(%eax)
     41d:	58                   	pop    %eax
     41e:	00 00                	add    %al,(%eax)
     420:	00 94 02 00 00 02 02 	add    %dl,0x2020000(%edx,%eax,1)
     427:	07                   	pop    %es
     428:	44                   	inc    %esp
     429:	00 00                	add    %al,(%eax)
     42b:	00 02                	add    %al,(%edx)
     42d:	04 07                	add    $0x7,%al
     42f:	4a                   	dec    %edx
     430:	00 00                	add    %al,(%eax)
     432:	00 03                	add    %al,(%ebx)
     434:	04 05                	add    $0x5,%al
     436:	69 6e 74 00 02 01 06 	imul   $0x6010200,0x74(%esi),%ebp
     43d:	2c 04                	sub    $0x4,%al
     43f:	00 00                	add    %al,(%eax)
     441:	04 3a                	add    $0x3a,%al
     443:	00 00                	add    %al,(%eax)
     445:	00 05 c3 01 00 00    	add    %al,0x1c3
     44b:	01 0d 06 a7 05 10    	add    %ecx,0x1005a706
     451:	00 25 00 00 00 01    	add    %ah,0x1000000
     457:	9c                   	pushf
     458:	6c                   	insb   (%dx),%es:(%edi)
     459:	00 00                	add    %al,(%eax)
     45b:	00 06                	add    %al,(%esi)
     45d:	98                   	cwtl
     45e:	01 00                	add    %eax,(%eax)
     460:	00 01                	add    %al,(%ecx)
     462:	0f                   	(bad)
     463:	0f 6c                	(bad)
     465:	00 00                	add    %al,(%eax)
     467:	00 02                	add    %al,(%edx)
     469:	91                   	xchg   %eax,%ecx
     46a:	70 00                	jo     46c <main-0xffb94>
     46c:	07                   	pop    %es
     46d:	2c 00                	sub    $0x0,%al
     46f:	00 00                	add    %al,(%eax)
     471:	7c 00                	jl     473 <main-0xffb8d>
     473:	00 00                	add    %al,(%eax)
     475:	08 2c 00             	or     %ch,(%eax,%eax,1)
     478:	00 00                	add    %al,(%eax)
     47a:	00 00                	add    %al,(%eax)
     47c:	09 a7 01 00 00 01    	or     %esp,0x1000001(%edi)
     482:	03 05 33 00 00 00    	add    0x33,%eax
     488:	74 05                	je     48f <main-0xffb71>
     48a:	10 00                	adc    %al,(%eax)
     48c:	33 00                	xor    (%eax),%eax
     48e:	00 00                	add    %al,(%eax)
     490:	01 9c c4 00 00 00 0a 	add    %ebx,0xa000000(%esp,%eax,8)
     497:	b2 01                	mov    $0x1,%dl
     499:	00 00                	add    %al,(%eax)
     49b:	01 03                	add    %eax,(%ebx)
     49d:	16                   	push   %ss
     49e:	c4 00                	les    (%eax),%eax
     4a0:	00 00                	add    %al,(%eax)
     4a2:	02 91 00 0a ac 01    	add    0x1ac0a00(%ecx),%dl
     4a8:	00 00                	add    %al,(%eax)
     4aa:	01 03                	add    %eax,(%ebx)
     4ac:	24 33                	and    $0x33,%al
     4ae:	00 00                	add    %al,(%eax)
     4b0:	00 02                	add    %al,(%edx)
     4b2:	91                   	xchg   %eax,%ecx
     4b3:	04 06                	add    $0x6,%al
     4b5:	98                   	cwtl
     4b6:	01 00                	add    %eax,(%eax)
     4b8:	00 01                	add    %al,(%ecx)
     4ba:	05 0f ca 00 00       	add    $0xca0f,%eax
     4bf:	00 02                	add    %al,(%edx)
     4c1:	91                   	xchg   %eax,%ecx
     4c2:	68 00 0b 04 41       	push   $0x41040b00
     4c7:	00 00                	add    %al,(%eax)
     4c9:	00 0c 2c             	add    %cl,(%esp,%ebp,1)
     4cc:	00 00                	add    %al,(%eax)
     4ce:	00 08                	add    %cl,(%eax)
     4d0:	2c 00                	sub    $0x0,%al
     4d2:	00 00                	add    %al,(%eax)
     4d4:	02 00                	add    (%eax),%al
     4d6:	00 e7                	add    %ah,%bh
     4d8:	03 00                	add    (%eax),%eax
     4da:	00 04 00             	add    %al,(%eax,%eax,1)
     4dd:	db 02                	fildl  (%edx)
     4df:	00 00                	add    %al,(%eax)
     4e1:	04 01                	add    $0x1,%al
     4e3:	7a 00                	jp     4e5 <main-0xffb1b>
     4e5:	00 00                	add    %al,(%eax)
     4e7:	0c 35                	or     $0x35,%al
     4e9:	03 00                	add    (%eax),%eax
     4eb:	00 62 01             	add    %ah,0x1(%edx)
     4ee:	00 00                	add    %al,(%eax)
     4f0:	cc                   	int3
     4f1:	05 10 00 0c 04       	add    $0x40c0010,%eax
     4f6:	00 00                	add    %al,(%eax)
     4f8:	e2 02                	loop   4fc <main-0xffb04>
     4fa:	00 00                	add    %al,(%eax)
     4fc:	02 d0                	add    %al,%dl
     4fe:	02 00                	add    (%eax),%al
     500:	00 04 02             	add    %al,(%edx,%eax,1)
     503:	0a 10                	or     (%eax),%dl
     505:	40                   	inc    %eax
     506:	00 00                	add    %al,(%eax)
     508:	00 03                	add    %al,(%ebx)
     50a:	e5 01                	in     $0x1,%eax
     50c:	00 00                	add    %al,(%eax)
     50e:	02 0c 0f             	add    (%edi,%ecx,1),%cl
     511:	40                   	inc    %eax
     512:	00 00                	add    %al,(%eax)
     514:	00 00                	add    %al,(%eax)
     516:	00 04 04             	add    %al,(%esp,%eax,1)
     519:	07                   	pop    %es
     51a:	4a                   	dec    %edx
     51b:	00 00                	add    %al,(%eax)
     51d:	00 05 f9 02 00 00    	add    %al,0x2f9
     523:	02 0e                	add    (%esi),%cl
     525:	01 25 00 00 00 02    	add    %esp,0x2000000
     52b:	1f                   	pop    %ds
     52c:	02 00                	add    (%eax),%al
     52e:	00 08                	add    %cl,(%eax)
     530:	02 10                	add    (%eax),%dl
     532:	10 7b 00             	adc    %bh,0x0(%ebx)
     535:	00 00                	add    %al,(%eax)
     537:	03 56 03             	add    0x3(%esi),%edx
     53a:	00 00                	add    %al,(%eax)
     53c:	02 12                	add    (%edx),%dl
     53e:	1a 7b 00             	sbb    0x0(%ebx),%bh
     541:	00 00                	add    %al,(%eax)
     543:	00 03                	add    %al,(%ebx)
     545:	69 02 00 00 02 13    	imul   $0x13020000,(%edx),%eax
     54b:	1a 7b 00             	sbb    0x0(%ebx),%bh
     54e:	00 00                	add    %al,(%eax)
     550:	04 00                	add    $0x0,%al
     552:	06                   	push   %es
     553:	04 53                	add    $0x53,%al
     555:	00 00                	add    %al,(%eax)
     557:	00 05 ac 02 00 00    	add    %al,0x2ac
     55d:	02 15 01 53 00 00    	add    0x5301,%dl
     563:	00 02                	add    %al,(%edx)
     565:	70 03                	jo     56a <main-0xffa96>
     567:	00 00                	add    %al,(%eax)
     569:	10 02                	adc    %al,(%edx)
     56b:	17                   	pop    %ss
     56c:	10 cf                	adc    %cl,%bh
     56e:	00 00                	add    %al,(%eax)
     570:	00 03                	add    %al,(%ebx)
     572:	2f                   	das
     573:	02 00                	add    (%eax),%al
     575:	00 02                	add    %al,(%edx)
     577:	19 13                	sbb    %edx,(%ebx)
     579:	cf                   	iret
     57a:	00 00                	add    %al,(%eax)
     57c:	00 00                	add    %al,(%eax)
     57e:	03 46 02             	add    0x2(%esi),%eax
     581:	00 00                	add    %al,(%eax)
     583:	02 1a                	add    (%edx),%bl
     585:	16                   	push   %ss
     586:	40                   	inc    %eax
     587:	00 00                	add    %al,(%eax)
     589:	00 04 03             	add    %al,(%ebx,%eax,1)
     58c:	65 03 00             	add    %gs:(%eax),%eax
     58f:	00 02                	add    %al,(%edx)
     591:	1b 16                	sbb    (%esi),%edx
     593:	40                   	inc    %eax
     594:	00 00                	add    %al,(%eax)
     596:	00 08                	add    %cl,(%eax)
     598:	03 3e                	add    (%esi),%edi
     59a:	03 00                	add    (%eax),%eax
     59c:	00 02                	add    %al,(%edx)
     59e:	1c 16                	sbb    $0x16,%al
     5a0:	40                   	inc    %eax
     5a1:	00 00                	add    %al,(%eax)
     5a3:	00 0c 00             	add    %cl,(%eax,%eax,1)
     5a6:	06                   	push   %es
     5a7:	04 81                	add    $0x81,%al
     5a9:	00 00                	add    %al,(%eax)
     5ab:	00 05 11 03 00 00    	add    %al,0x311
     5b1:	02 1e                	add    (%esi),%bl
     5b3:	01 8d 00 00 00 07    	add    %ecx,0x7000000(%ebp)
     5b9:	d5 00                	aad    $0x0
     5bb:	00 00                	add    %al,(%eax)
     5bd:	f1                   	int1
     5be:	00 00                	add    %al,(%eax)
     5c0:	00 08                	add    %cl,(%eax)
     5c2:	40                   	inc    %eax
     5c3:	00 00                	add    %al,(%eax)
     5c5:	00 0f                	add    %cl,(%edi)
     5c7:	00 09                	add    %cl,(%ecx)
     5c9:	9a 02 00 00 01 03 1b 	lcall  $0x1b03,$0x1000002
     5d0:	e1 00                	loope  5d2 <main-0xffa2e>
     5d2:	00 00                	add    %al,(%eax)
     5d4:	05 03 00 24 10       	add    $0x10240003,%eax
     5d9:	00 09                	add    %cl,(%ecx)
     5db:	56                   	push   %esi
     5dc:	02 00                	add    (%eax),%al
     5de:	00 01                	add    %al,(%ecx)
     5e0:	07                   	pop    %es
     5e1:	0c 15                	or     $0x15,%al
     5e3:	01 00                	add    %eax,(%eax)
     5e5:	00 05 03 e8 23 10    	add    %al,0x1023e803
     5eb:	00 0a                	add    %cl,(%edx)
     5ed:	04 05                	add    $0x5,%al
     5ef:	69 6e 74 00 0b 51 03 	imul   $0x3510b00,0x74(%esi),%ebp
     5f6:	00 00                	add    %al,(%eax)
     5f8:	01 57 2a             	add    %edx,0x2a(%edi)
     5fb:	15 01 00 00 2e       	adc    $0x2e000001,%eax
     600:	01 00                	add    %eax,(%eax)
     602:	00 0c 00             	add    %cl,(%eax,%eax,1)
     605:	0b 31                	or     (%ecx),%esi
     607:	00 00                	add    %al,(%eax)
     609:	00 01                	add    %al,(%ecx)
     60b:	51                   	push   %ecx
     60c:	02 15 01 00 00 40    	add    0x40000001,%dl
     612:	01 00                	add    %eax,(%eax)
     614:	00 0c 00             	add    %cl,(%eax,%eax,1)
     617:	0d f3 02 00 00       	or     $0x2f3,%eax
     61c:	01 8b 06 86 09 10    	add    %ecx,0x10098606(%ebx)
     622:	00 52 00             	add    %dl,0x0(%edx)
     625:	00 00                	add    %al,(%eax)
     627:	01 9c 75 01 00 00 0e 	add    %ebx,0xe000001(%ebp,%esi,2)
     62e:	03 02                	add    (%edx),%eax
     630:	00 00                	add    %al,(%eax)
     632:	01 8b 12 75 01 00    	add    %ecx,0x17512(%ebx)
     638:	00 02                	add    %al,(%edx)
     63a:	91                   	xchg   %eax,%ecx
     63b:	00 09                	add    %cl,(%ecx)
     63d:	3b 02                	cmp    (%edx),%eax
     63f:	00 00                	add    %al,(%eax)
     641:	01 8d 0f 40 00 00    	add    %ecx,0x400f(%ebp)
     647:	00 02                	add    %al,(%edx)
     649:	91                   	xchg   %eax,%ecx
     64a:	74 00                	je     64c <main-0xff9b4>
     64c:	0f 04                	(bad)
     64e:	10 78 02             	adc    %bh,0x2(%eax)
     651:	00 00                	add    %al,(%eax)
     653:	01 5b 07             	add    %ebx,0x7(%ebx)
     656:	75 01                	jne    659 <main-0xff9a7>
     658:	00 00                	add    %al,(%eax)
     65a:	be 07 10 00 c8       	mov    $0xc8001007,%esi
     65f:	01 00                	add    %eax,(%eax)
     661:	00 01                	add    %al,(%ecx)
     663:	9c                   	pushf
     664:	e3 01                	jecxz  667 <main-0xff999>
     666:	00 00                	add    %al,(%eax)
     668:	0e                   	push   %cs
     669:	08 03                	or     %al,(%ebx)
     66b:	00 00                	add    %al,(%eax)
     66d:	01 5b 1c             	add    %ebx,0x1c(%ebx)
     670:	40                   	inc    %eax
     671:	00 00                	add    %al,(%eax)
     673:	00 02                	add    %al,(%edx)
     675:	91                   	xchg   %eax,%ecx
     676:	00 11                	add    %dl,(%ecx)
     678:	69 00 01 5d 06 15    	imul   $0x15065d01,(%eax),%eax
     67e:	01 00                	add    %eax,(%eax)
     680:	00 02                	add    %al,(%edx)
     682:	91                   	xchg   %eax,%ecx
     683:	6c                   	insb   (%dx),%es:(%edi)
     684:	09 92 02 00 00 01    	or     %edx,0x1000002(%edx)
     68a:	5e                   	pop    %esi
     68b:	08 75 01             	or     %dh,0x1(%ebp)
     68e:	00 00                	add    %al,(%eax)
     690:	02 91 68 0b 31 00    	add    0x310b68(%ecx),%dl
     696:	00 00                	add    %al,(%eax)
     698:	01 51 02             	add    %edx,0x2(%ecx)
     69b:	15 01 00 00 ce       	adc    $0xce000001,%eax
     6a0:	01 00                	add    %eax,(%eax)
     6a2:	00 0c 00             	add    %cl,(%eax,%eax,1)
     6a5:	12 00                	adc    (%eax),%al
     6a7:	00 00                	add    %al,(%eax)
     6a9:	00 13                	add    %dl,(%ebx)
     6ab:	51                   	push   %ecx
     6ac:	03 00                	add    (%eax),%eax
     6ae:	00 01                	add    %al,(%ecx)
     6b0:	57                   	push   %edi
     6b1:	2a 15 01 00 00 0c    	sub    0xc000001,%dl
     6b7:	00 00                	add    %al,(%eax)
     6b9:	00 14 74             	add    %dl,(%esp,%esi,2)
     6bc:	02 00                	add    (%eax),%al
     6be:	00 01                	add    %al,(%ecx)
     6c0:	4c                   	dec    %esp
     6c1:	0d 3c 07 10 00       	or     $0x10073c,%eax
     6c6:	82 00 00             	addb   $0x0,(%eax)
     6c9:	00 01                	add    %al,(%ecx)
     6cb:	9c                   	pushf
     6cc:	40                   	inc    %eax
     6cd:	02 00                	add    (%eax),%al
     6cf:	00 11                	add    %dl,(%ecx)
     6d1:	69 00 01 4e 0f 40    	imul   $0x400f4e01,(%eax),%eax
     6d7:	00 00                	add    %al,(%eax)
     6d9:	00 02                	add    %al,(%edx)
     6db:	91                   	xchg   %eax,%ecx
     6dc:	6c                   	insb   (%dx),%es:(%edi)
     6dd:	09 df                	or     %ebx,%edi
     6df:	02 00                	add    (%eax),%al
     6e1:	00 01                	add    %al,(%ecx)
     6e3:	4f                   	dec    %edi
     6e4:	08 75 01             	or     %dh,0x1(%ebp)
     6e7:	00 00                	add    %al,(%eax)
     6e9:	02 91 68 0b 31 00    	add    0x310b68(%ecx),%dl
     6ef:	00 00                	add    %al,(%eax)
     6f1:	01 51 02             	add    %edx,0x2(%ecx)
     6f4:	15 01 00 00 27       	adc    $0x27000001,%eax
     6f9:	02 00                	add    (%eax),%al
     6fb:	00 0c 00             	add    %cl,(%eax,%eax,1)
     6fe:	15 70 07 10 00       	adc    $0x100770,%eax
     703:	3d 00 00 00 13       	cmp    $0x13000000,%eax
     708:	51                   	push   %ecx
     709:	03 00                	add    (%eax),%eax
     70b:	00 01                	add    %al,(%ecx)
     70d:	57                   	push   %edi
     70e:	2a 15 01 00 00 0c    	sub    0xc000001,%dl
     714:	00 00                	add    %al,(%eax)
     716:	00 16                	add    %dl,(%esi)
     718:	e8 02 00 00 01       	call   100071f <a_fixed_size_desc+0xefe31f>
     71d:	39 0d de 06 10 00    	cmp    %ecx,0x1006de
     723:	5e                   	pop    %esi
     724:	00 00                	add    %al,(%eax)
     726:	00 01                	add    %al,(%ecx)
     728:	9c                   	pushf
     729:	c6 02 00             	movb   $0x0,(%edx)
     72c:	00 0e                	add    %cl,(%esi)
     72e:	9a 02 00 00 01 39 32 	lcall  $0x3239,$0x1000002
     735:	c6 02 00             	movb   $0x0,(%edx)
     738:	00 02                	add    %al,(%edx)
     73a:	91                   	xchg   %eax,%ecx
     73b:	00 0e                	add    %cl,(%esi)
     73d:	03 02                	add    (%edx),%eax
     73f:	00 00                	add    %al,(%eax)
     741:	01 39                	add    %edi,(%ecx)
     743:	4a                   	dec    %edx
     744:	75 01                	jne    747 <main-0xff8b9>
     746:	00 00                	add    %al,(%eax)
     748:	02 91 04 17 40 02    	add    0x2401704(%ecx),%dl
     74e:	00 00                	add    %al,(%eax)
     750:	01 3b                	add    %edi,(%ebx)
     752:	06                   	push   %es
     753:	15 01 00 00 09       	adc    $0x9000001,%eax
     758:	24 02                	and    $0x2,%al
     75a:	00 00                	add    %al,(%eax)
     75c:	01 3c 13             	add    %edi,(%ebx,%edx,1)
     75f:	cf                   	iret
     760:	00 00                	add    %al,(%eax)
     762:	00 02                	add    %al,(%edx)
     764:	91                   	xchg   %eax,%ecx
     765:	74 09                	je     770 <main-0xff890>
     767:	24 03                	and    $0x3,%al
     769:	00 00                	add    %al,(%eax)
     76b:	01 3d 13 cf 00 00    	add    %edi,0xcf13
     771:	00 02                	add    %al,(%edx)
     773:	91                   	xchg   %eax,%ecx
     774:	6c                   	insb   (%dx),%es:(%edi)
     775:	09 f0                	or     %esi,%eax
     777:	01 00                	add    %eax,(%eax)
     779:	00 01                	add    %al,(%ecx)
     77b:	3e 13 cf             	ds adc %edi,%ecx
     77e:	00 00                	add    %al,(%eax)
     780:	00 02                	add    %al,(%edx)
     782:	91                   	xchg   %eax,%ecx
     783:	70 17                	jo     79c <main-0xff864>
     785:	d5 01                	aad    $0x1
     787:	00 00                	add    %al,(%eax)
     789:	01 3f                	add    %edi,(%edi)
     78b:	16                   	push   %ss
     78c:	cf                   	iret
     78d:	00 00                	add    %al,(%eax)
     78f:	00 17                	add    %dl,(%edi)
     791:	bc 02 00 00 01       	mov    $0x1000002,%esp
     796:	40                   	inc    %eax
     797:	13 cf                	adc    %edi,%ecx
     799:	00 00                	add    %al,(%eax)
     79b:	00 00                	add    %al,(%eax)
     79d:	06                   	push   %es
     79e:	04 d5                	add    $0xd5,%al
     7a0:	00 00                	add    %al,(%eax)
     7a2:	00 18                	add    %bl,(%eax)
     7a4:	80 02 00             	addb   $0x0,(%edx)
     7a7:	00 01                	add    %al,(%ecx)
     7a9:	28 0e                	sub    %cl,(%esi)
     7ab:	75 01                	jne    7ae <main-0xff852>
     7ad:	00 00                	add    %al,(%eax)
     7af:	89 06                	mov    %eax,(%esi)
     7b1:	10 00                	adc    %al,(%eax)
     7b3:	55                   	push   %ebp
     7b4:	00 00                	add    %al,(%eax)
     7b6:	00 01                	add    %al,(%ecx)
     7b8:	9c                   	pushf
     7b9:	3b 03                	cmp    (%ebx),%eax
     7bb:	00 00                	add    %al,(%eax)
     7bd:	0e                   	push   %cs
     7be:	9a 02 00 00 01 28 34 	lcall  $0x3428,$0x1000002
     7c5:	c6 02 00             	movb   $0x0,(%edx)
     7c8:	00 02                	add    %al,(%edx)
     7ca:	91                   	xchg   %eax,%ecx
     7cb:	00 09                	add    %cl,(%ecx)
     7cd:	15 02 00 00 01       	adc    $0x1000002,%eax
     7d2:	2a 13                	sub    (%ebx),%dl
     7d4:	cf                   	iret
     7d5:	00 00                	add    %al,(%eax)
     7d7:	00 02                	add    %al,(%edx)
     7d9:	91                   	xchg   %eax,%ecx
     7da:	6c                   	insb   (%dx),%es:(%edi)
     7db:	17                   	pop    %ss
     7dc:	d5 02                	aad    $0x2
     7de:	00 00                	add    %al,(%eax)
     7e0:	01 2b                	add    %ebp,(%ebx)
     7e2:	15 3b 03 00 00       	adc    $0x33b,%eax
     7e7:	09 f0                	or     %esi,%eax
     7e9:	01 00                	add    %eax,(%eax)
     7eb:	00 01                	add    %al,(%ecx)
     7ed:	2c 13                	sub    $0x13,%al
     7ef:	cf                   	iret
     7f0:	00 00                	add    %al,(%eax)
     7f2:	00 02                	add    %al,(%edx)
     7f4:	91                   	xchg   %eax,%ecx
     7f5:	74 09                	je     800 <main-0xff800>
     7f7:	d5 01                	aad    $0x1
     7f9:	00 00                	add    %al,(%eax)
     7fb:	01 2d 16 cf 00 00    	add    %ebp,0xcf16
     801:	00 02                	add    %al,(%edx)
     803:	91                   	xchg   %eax,%ecx
     804:	70 17                	jo     81d <main-0xff7e3>
     806:	bc 02 00 00 01       	mov    $0x1000002,%esp
     80b:	2e 16                	cs push %ss
     80d:	cf                   	iret
     80e:	00 00                	add    %al,(%eax)
     810:	00 00                	add    %al,(%eax)
     812:	06                   	push   %es
     813:	04 47                	add    $0x47,%al
     815:	00 00                	add    %al,(%eax)
     817:	00 19                	add    %bl,(%ecx)
     819:	83 03 00             	addl   $0x0,(%ebx)
     81c:	00 01                	add    %al,(%ecx)
     81e:	09 0d cc 05 10 00    	or     %ecx,0x1005cc
     824:	bd 00 00 00 01       	mov    $0x1000000,%ebp
     829:	9c                   	pushf
     82a:	0e                   	push   %cs
     82b:	9a 02 00 00 01 09 32 	lcall  $0x3209,$0x1000002
     832:	c6 02 00             	movb   $0x0,(%edx)
     835:	00 02                	add    %al,(%edx)
     837:	91                   	xchg   %eax,%ecx
     838:	00 0e                	add    %cl,(%esi)
     83a:	65 03 00             	add    %gs:(%eax),%eax
     83d:	00 01                	add    %al,(%ecx)
     83f:	09 51 40             	or     %edx,0x40(%ecx)
     842:	00 00                	add    %al,(%eax)
     844:	00 02                	add    %al,(%edx)
     846:	91                   	xchg   %eax,%ecx
     847:	04 0e                	add    $0xe,%al
     849:	df 02                	filds  (%edx)
     84b:	00 00                	add    %al,(%eax)
     84d:	01 09                	add    %ecx,(%ecx)
     84f:	62 75 01             	bound  %esi,0x1(%ebp)
     852:	00 00                	add    %al,(%eax)
     854:	02 91 08 0e 6b 03    	add    0x36b0e08(%ecx),%dl
     85a:	00 00                	add    %al,(%eax)
     85c:	01 09                	add    %ecx,(%ecx)
     85e:	6f                   	outsl  %ds:(%esi),(%dx)
     85f:	15 01 00 00 02       	adc    $0x2000001,%eax
     864:	91                   	xchg   %eax,%ecx
     865:	0c 09                	or     $0x9,%al
     867:	40                   	inc    %eax
     868:	02 00                	add    (%eax),%al
     86a:	00 01                	add    %al,(%ecx)
     86c:	0b 09                	or     (%ecx),%ecx
     86e:	15 01 00 00 02       	adc    $0x2000001,%eax
     873:	91                   	xchg   %eax,%ecx
     874:	74 09                	je     87f <main-0xff781>
     876:	0b 02                	or     (%edx),%eax
     878:	00 00                	add    %al,(%eax)
     87a:	01 0c 0f             	add    %ecx,(%edi,%ecx,1)
     87d:	40                   	inc    %eax
     87e:	00 00                	add    %al,(%eax)
     880:	00 02                	add    %al,(%edx)
     882:	91                   	xchg   %eax,%ecx
     883:	68 09 24 03 00       	push   $0x32409
     888:	00 01                	add    %al,(%ecx)
     88a:	0d 13 cf 00 00       	or     $0xcf13,%eax
     88f:	00 02                	add    %al,(%edx)
     891:	91                   	xchg   %eax,%ecx
     892:	64 09 f0             	fs or  %esi,%eax
     895:	01 00                	add    %eax,(%eax)
     897:	00 01                	add    %al,(%ecx)
     899:	0e                   	push   %cs
     89a:	13 cf                	adc    %edi,%ecx
     89c:	00 00                	add    %al,(%eax)
     89e:	00 02                	add    %al,(%edx)
     8a0:	91                   	xchg   %eax,%ecx
     8a1:	70 09                	jo     8ac <main-0xff754>
     8a3:	bc 02 00 00 01       	mov    $0x1000002,%esp
     8a8:	0f 13                	(bad)
     8aa:	cf                   	iret
     8ab:	00 00                	add    %al,(%eax)
     8ad:	00 02                	add    %al,(%edx)
     8af:	91                   	xchg   %eax,%ecx
     8b0:	6c                   	insb   (%dx),%es:(%edi)
     8b1:	09 d5                	or     %edx,%ebp
     8b3:	01 00                	add    %eax,(%eax)
     8b5:	00 01                	add    %al,(%ecx)
     8b7:	10 13                	adc    %dl,(%ebx)
     8b9:	cf                   	iret
     8ba:	00 00                	add    %al,(%eax)
     8bc:	00 02                	add    %al,(%edx)
     8be:	91                   	xchg   %eax,%ecx
     8bf:	60                   	pusha
     8c0:	00 00                	add    %al,(%eax)
     8c2:	93                   	xchg   %eax,%ebx
     8c3:	00 00                	add    %al,(%eax)
     8c5:	00 04 00             	add    %al,(%eax,%eax,1)
     8c8:	77 04                	ja     8ce <main-0xff732>
     8ca:	00 00                	add    %al,(%eax)
     8cc:	04 01                	add    $0x1,%al
     8ce:	7a 00                	jp     8d0 <main-0xff730>
     8d0:	00 00                	add    %al,(%eax)
     8d2:	0c 94                	or     $0x94,%al
     8d4:	03 00                	add    (%eax),%eax
     8d6:	00 62 01             	add    %ah,0x1(%edx)
     8d9:	00 00                	add    %al,(%eax)
     8db:	d8 09                	fmuls  (%ecx)
     8dd:	10 00                	adc    %al,(%eax)
     8df:	43                   	inc    %ebx
     8e0:	00 00                	add    %al,(%eax)
     8e2:	00 85 04 00 00 02    	add    %al,0x2000004(%ebp)
     8e8:	9b                   	fwait
     8e9:	03 00                	add    (%eax),%eax
     8eb:	00 01                	add    %al,(%ecx)
     8ed:	07                   	pop    %es
     8ee:	0e                   	push   %cs
     8ef:	5c                   	pop    %esp
     8f0:	00 00                	add    %al,(%eax)
     8f2:	00 fd                	add    %bh,%ch
     8f4:	09 10                	or     %edx,(%eax)
     8f6:	00 1e                	add    %bl,(%esi)
     8f8:	00 00                	add    %al,(%eax)
     8fa:	00 01                	add    %al,(%ecx)
     8fc:	9c                   	pushf
     8fd:	5c                   	pop    %esp
     8fe:	00 00                	add    %al,(%eax)
     900:	00 03                	add    %al,(%ebx)
     902:	78 00                	js     904 <main-0xff6fc>
     904:	01 07                	add    %eax,(%edi)
     906:	20 5c 00 00          	and    %bl,0x0(%eax,%eax,1)
     90a:	00 02                	add    %al,(%edx)
     90c:	91                   	xchg   %eax,%ecx
     90d:	00 04 72             	add    %al,(%edx,%esi,2)
     910:	65 74 00             	gs je  913 <main-0xff6ed>
     913:	01 09                	add    %ecx,(%ecx)
     915:	0f 5c 00             	subps  (%eax),%xmm0
     918:	00 00                	add    %al,(%eax)
     91a:	02 91 74 00 05 04    	add    0x4050074(%ecx),%dl
     920:	07                   	pop    %es
     921:	4a                   	dec    %edx
     922:	00 00                	add    %al,(%eax)
     924:	00 06                	add    %al,(%esi)
     926:	51                   	push   %ecx
     927:	03 00                	add    (%eax),%eax
     929:	00 01                	add    %al,(%ecx)
     92b:	01 0e                	add    %ecx,(%esi)
     92d:	5c                   	pop    %esp
     92e:	00 00                	add    %al,(%eax)
     930:	00 d8                	add    %bl,%al
     932:	09 10                	or     %edx,(%eax)
     934:	00 25 00 00 00 01    	add    %ah,0x1000000
     93a:	9c                   	pushf
     93b:	03 78 00             	add    0x0(%eax),%edi
     93e:	01 01                	add    %eax,(%ecx)
     940:	20 5c 00 00          	and    %bl,0x0(%eax,%eax,1)
     944:	00 02                	add    %al,(%edx)
     946:	91                   	xchg   %eax,%ecx
     947:	00 04 72             	add    %al,(%edx,%esi,2)
     94a:	65 74 00             	gs je  94d <main-0xff6b3>
     94d:	01 03                	add    %eax,(%ebx)
     94f:	0f 5c 00             	subps  (%eax),%xmm0
     952:	00 00                	add    %al,(%eax)
     954:	02 91 74 00 00 ac    	add    -0x53ffff8c(%ecx),%dl
     95a:	05 00 00 04 00       	add    $0x40000,%eax
     95f:	f2 04 00             	repnz add $0x0,%al
     962:	00 04 01             	add    %al,(%ecx,%eax,1)
     965:	7a 00                	jp     967 <main-0xff699>
     967:	00 00                	add    %al,(%eax)
     969:	0c 8d                	or     $0x8d,%al
     96b:	04 00                	add    $0x0,%al
     96d:	00 62 01             	add    %ah,0x1(%edx)
     970:	00 00                	add    %al,(%eax)
     972:	1b 0a                	sbb    (%edx),%ecx
     974:	10 00                	adc    %al,(%eax)
     976:	94                   	xchg   %eax,%esp
     977:	03 00                	add    (%eax),%eax
     979:	00 cf                	add    %cl,%bh
     97b:	04 00                	add    $0x0,%al
     97d:	00 02                	add    %al,(%edx)
     97f:	02 07                	add    (%edi),%al
     981:	44                   	inc    %esp
     982:	00 00                	add    %al,(%eax)
     984:	00 02                	add    %al,(%edx)
     986:	04 07                	add    $0x7,%al
     988:	4a                   	dec    %edx
     989:	00 00                	add    %al,(%eax)
     98b:	00 03                	add    %al,(%ebx)
     98d:	4e                   	dec    %esi
     98e:	04 00                	add    $0x0,%al
     990:	00 02                	add    %al,(%edx)
     992:	21 19                	and    %ebx,(%ecx)
     994:	25 00 00 00 03       	and    $0x3000000,%eax
     999:	b9 04 00 00 02       	mov    $0x2000004,%ecx
     99e:	22 16                	and    (%esi),%dl
     9a0:	2c 00                	sub    $0x0,%al
     9a2:	00 00                	add    %al,(%eax)
     9a4:	04 04                	add    $0x4,%al
     9a6:	05 69 6e 74 00       	add    $0x746e69,%eax
     9ab:	03 a7 03 00 00 02    	add    0x2000003(%edi),%esp
     9b1:	24 16                	and    $0x16,%al
     9b3:	2c 00                	sub    $0x0,%al
     9b5:	00 00                	add    %al,(%eax)
     9b7:	05 cb 04 00 00       	add    $0x4cb,%eax
     9bc:	08 02                	or     %al,(%edx)
     9be:	26 08 86 00 00 00 06 	or     %al,%es:0x6000000(%esi)
     9c5:	9f                   	lahf
     9c6:	04 00                	add    $0x0,%al
     9c8:	00 02                	add    %al,(%edx)
     9ca:	28 12                	sub    %dl,(%edx)
     9cc:	33 00                	xor    (%eax),%eax
     9ce:	00 00                	add    %al,(%eax)
     9d0:	00 06                	add    %al,(%esi)
     9d2:	c3                   	ret
     9d3:	04 00                	add    $0x0,%al
     9d5:	00 02                	add    %al,(%edx)
     9d7:	29 12                	sub    %edx,(%edx)
     9d9:	8b 00                	mov    (%eax),%eax
     9db:	00 00                	add    %al,(%eax)
     9dd:	02 00                	add    (%eax),%al
     9df:	07                   	pop    %es
     9e0:	5e                   	pop    %esi
     9e1:	00 00                	add    %al,(%eax)
     9e3:	00 08                	add    %cl,(%eax)
     9e5:	9b                   	fwait
     9e6:	00 00                	add    %al,(%eax)
     9e8:	00 9b 00 00 00 09    	add    %bl,0x9000000(%ebx)
     9ee:	2c 00                	sub    $0x0,%al
     9f0:	00 00                	add    %al,(%eax)
     9f2:	05 00 02 01 06       	add    $0x6010200,%eax
     9f7:	2c 04                	sub    $0x4,%al
     9f9:	00 00                	add    %al,(%eax)
     9fb:	05 e2 04 00 00       	add    $0x4e2,%eax
     a00:	04 02                	add    $0x2,%al
     a02:	2c 08                	sub    $0x8,%al
     a04:	bd 00 00 00 06       	mov    $0x6000000,%ebp
     a09:	5f                   	pop    %edi
     a0a:	04 00                	add    $0x0,%al
     a0c:	00 02                	add    %al,(%edx)
     a0e:	2e 11 2c 00          	adc    %ebp,%cs:(%eax,%eax,1)
     a12:	00 00                	add    %al,(%eax)
     a14:	00 00                	add    %al,(%eax)
     a16:	05 31 04 00 00       	add    $0x431,%eax
     a1b:	08 02                	or     %al,(%edx)
     a1d:	31 08                	xor    %ecx,(%eax)
     a1f:	f2 00 00             	repnz add %al,(%eax)
     a22:	00 06                	add    %al,(%esi)
     a24:	ce                   	into
     a25:	03 00                	add    (%eax),%eax
     a27:	00 02                	add    %al,(%edx)
     a29:	33 18                	xor    (%eax),%ebx
     a2b:	33 00                	xor    (%eax),%eax
     a2d:	00 00                	add    %al,(%eax)
     a2f:	00 06                	add    %al,(%esi)
     a31:	45                   	inc    %ebp
     a32:	04 00                	add    $0x0,%al
     a34:	00 02                	add    %al,(%edx)
     a36:	34 18                	xor    $0x18,%al
     a38:	25 00 00 00 02       	and    $0x2000000,%eax
     a3d:	06                   	push   %es
     a3e:	e1 04                	loope  a44 <main-0xff5bc>
     a40:	00 00                	add    %al,(%eax)
     a42:	02 35 18 a2 00 00    	add    0xa218,%dh
     a48:	00 04 00             	add    %al,(%eax,%eax,1)
     a4b:	0a 5a 04             	or     0x4(%edx),%bl
     a4e:	00 00                	add    %al,(%eax)
     a50:	01 8a 01 4b 00 00    	add    %ecx,0x4b01(%edx)
     a56:	00 66 0d             	add    %ah,0xd(%esi)
     a59:	10 00                	adc    %al,(%eax)
     a5b:	49                   	dec    %ecx
     a5c:	00 00                	add    %al,(%eax)
     a5e:	00 01                	add    %al,(%ecx)
     a60:	9c                   	pushf
     a61:	49                   	dec    %ecx
     a62:	01 00                	add    %eax,(%eax)
     a64:	00 0b                	add    %cl,(%ebx)
     a66:	7a 04                	jp     a6c <main-0xff594>
     a68:	00 00                	add    %al,(%eax)
     a6a:	01 8a 13 2c 00 00    	add    %ecx,0x2c13(%edx)
     a70:	00 02                	add    %al,(%edx)
     a72:	91                   	xchg   %eax,%ecx
     a73:	00 0b                	add    %cl,(%ebx)
     a75:	b7 03                	mov    $0x3,%bh
     a77:	00 00                	add    %al,(%eax)
     a79:	01 8a 29 25 00 00    	add    %ecx,0x2529(%edx)
     a7f:	00 02                	add    %al,(%edx)
     a81:	91                   	xchg   %eax,%ecx
     a82:	60                   	pusha
     a83:	0b 6d 04             	or     0x4(%ebp),%ebp
     a86:	00 00                	add    %al,(%eax)
     a88:	01 8a 44 25 00 00    	add    %ecx,0x2544(%edx)
     a8e:	00 02                	add    %al,(%edx)
     a90:	91                   	xchg   %eax,%ecx
     a91:	5c                   	pop    %esp
     a92:	0c 98                	or     $0x98,%al
     a94:	01 00                	add    %eax,(%eax)
     a96:	00 01                	add    %al,(%ecx)
     a98:	8c 0f                	mov    %cs,(%edi)
     a9a:	49                   	dec    %ecx
     a9b:	01 00                	add    %eax,(%eax)
     a9d:	00 02                	add    %al,(%edx)
     a9f:	91                   	xchg   %eax,%ecx
     aa0:	64 00 08             	add    %cl,%fs:(%eax)
     aa3:	2c 00                	sub    $0x0,%al
     aa5:	00 00                	add    %al,(%eax)
     aa7:	59                   	pop    %ecx
     aa8:	01 00                	add    %eax,(%eax)
     aaa:	00 09                	add    %cl,(%ecx)
     aac:	2c 00                	sub    $0x0,%al
     aae:	00 00                	add    %al,(%eax)
     ab0:	03 00                	add    (%eax),%eax
     ab2:	0a d4                	or     %ah,%dl
     ab4:	04 00                	add    $0x0,%al
     ab6:	00 01                	add    %al,(%ecx)
     ab8:	80 05 4b 00 00 00 39 	addb   $0x39,0x4b
     abf:	0d 10 00 2d 00       	or     $0x2d0010,%eax
     ac4:	00 00                	add    %al,(%eax)
     ac6:	01 9c 92 01 00 00 0b 	add    %ebx,0xb000001(%edx,%edx,4)
     acd:	02 04 00             	add    (%eax,%eax,1),%al
     ad0:	00 01                	add    %al,(%ecx)
     ad2:	80 16 4b             	adcb   $0x4b,(%esi)
     ad5:	00 00                	add    %al,(%eax)
     ad7:	00 02                	add    %al,(%edx)
     ad9:	91                   	xchg   %eax,%ecx
     ada:	00 0c 98             	add    %cl,(%eax,%ebx,4)
     add:	01 00                	add    %eax,(%eax)
     adf:	00 01                	add    %al,(%ecx)
     ae1:	82 0f 92             	orb    $0x92,(%edi)
     ae4:	01 00                	add    %eax,(%eax)
     ae6:	00 02                	add    %al,(%edx)
     ae8:	91                   	xchg   %eax,%ecx
     ae9:	70 00                	jo     aeb <main-0xff515>
     aeb:	08 2c 00             	or     %ch,(%eax,%eax,1)
     aee:	00 00                	add    %al,(%eax)
     af0:	a2 01 00 00 09       	mov    %al,0x9000001
     af5:	2c 00                	sub    $0x0,%al
     af7:	00 00                	add    %al,(%eax)
     af9:	00 00                	add    %al,(%eax)
     afb:	0a 17                	or     (%edi),%dl
     afd:	04 00                	add    $0x0,%al
     aff:	00 01                	add    %al,(%ecx)
     b01:	72 05                	jb     b08 <main-0xff4f8>
     b03:	4b                   	dec    %ebx
     b04:	00 00                	add    %al,(%eax)
     b06:	00 f2                	add    %dh,%dl
     b08:	0c 10                	or     $0x10,%al
     b0a:	00 47 00             	add    %al,0x0(%edi)
     b0d:	00 00                	add    %al,(%eax)
     b0f:	01 9c f9 01 00 00 0b 	add    %ebx,0xb000001(%ecx,%edi,8)
     b16:	02 04 00             	add    (%eax,%eax,1),%al
     b19:	00 01                	add    %al,(%ecx)
     b1b:	72 15                	jb     b32 <main-0xff4ce>
     b1d:	4b                   	dec    %ebx
     b1e:	00 00                	add    %al,(%eax)
     b20:	00 02                	add    %al,(%edx)
     b22:	91                   	xchg   %eax,%ecx
     b23:	00 0d 62 75 66 00    	add    %cl,0x667562
     b29:	01 72 23             	add    %esi,0x23(%edx)
     b2c:	f9                   	stc
     b2d:	01 00                	add    %eax,(%eax)
     b2f:	00 02                	add    %al,(%edx)
     b31:	91                   	xchg   %eax,%ecx
     b32:	04 0b                	add    $0xb,%al
     b34:	c8 03 00 00          	enter  $0x3,$0x0
     b38:	01 72 2c             	add    %esi,0x2c(%edx)
     b3b:	4b                   	dec    %ebx
     b3c:	00 00                	add    %al,(%eax)
     b3e:	00 02                	add    %al,(%edx)
     b40:	91                   	xchg   %eax,%ecx
     b41:	08 0c 98             	or     %cl,(%eax,%ebx,4)
     b44:	01 00                	add    %eax,(%eax)
     b46:	00 01                	add    %al,(%ecx)
     b48:	74 0f                	je     b59 <main-0xff4a7>
     b4a:	fb                   	sti
     b4b:	01 00                	add    %eax,(%eax)
     b4d:	00 02                	add    %al,(%edx)
     b4f:	91                   	xchg   %eax,%ecx
     b50:	5c                   	pop    %esp
     b51:	00 0e                	add    %cl,(%esi)
     b53:	04 08                	add    $0x8,%al
     b55:	2c 00                	sub    $0x0,%al
     b57:	00 00                	add    %al,(%eax)
     b59:	0b 02                	or     (%edx),%eax
     b5b:	00 00                	add    %al,(%eax)
     b5d:	09 2c 00             	or     %ebp,(%eax,%eax,1)
     b60:	00 00                	add    %al,(%eax)
     b62:	05 00 0a e5 03       	add    $0x3e50a00,%eax
     b67:	00 00                	add    %al,(%eax)
     b69:	01 64 05 4b          	add    %esp,0x4b(%ebp,%eax,1)
     b6d:	00 00                	add    %al,(%eax)
     b6f:	00 ab 0c 10 00 47    	add    %ch,0x4700100c(%ebx)
     b75:	00 00                	add    %al,(%eax)
     b77:	00 01                	add    %al,(%ecx)
     b79:	9c                   	pushf
     b7a:	62 02                	bound  %eax,(%edx)
     b7c:	00 00                	add    %al,(%eax)
     b7e:	0b 02                	or     (%edx),%eax
     b80:	04 00                	add    $0x0,%al
     b82:	00 01                	add    %al,(%ecx)
     b84:	64 16                	fs push %ss
     b86:	4b                   	dec    %ebx
     b87:	00 00                	add    %al,(%eax)
     b89:	00 02                	add    %al,(%edx)
     b8b:	91                   	xchg   %eax,%ecx
     b8c:	00 0d 62 75 66 00    	add    %cl,0x667562
     b92:	01 64 24 f9          	add    %esp,-0x7(%esp)
     b96:	01 00                	add    %eax,(%eax)
     b98:	00 02                	add    %al,(%edx)
     b9a:	91                   	xchg   %eax,%ecx
     b9b:	04 0b                	add    $0xb,%al
     b9d:	c8 03 00 00          	enter  $0x3,$0x0
     ba1:	01 64 2d 4b          	add    %esp,0x4b(%ebp,%ebp,1)
     ba5:	00 00                	add    %al,(%eax)
     ba7:	00 02                	add    %al,(%edx)
     ba9:	91                   	xchg   %eax,%ecx
     baa:	08 0c 98             	or     %cl,(%eax,%ebx,4)
     bad:	01 00                	add    %eax,(%eax)
     baf:	00 01                	add    %al,(%ecx)
     bb1:	66 0f fb 01          	psubq  (%ecx),%xmm0
     bb5:	00 00                	add    %al,(%eax)
     bb7:	02 91 5c 00 0a 3d    	add    0x3d0a005c(%ecx),%dl
     bbd:	04 00                	add    $0x0,%al
     bbf:	00 01                	add    %al,(%ecx)
     bc1:	53                   	push   %ebx
     bc2:	05 4b 00 00 00       	add    $0x4b,%eax
     bc7:	0c 0c                	or     $0xc,%al
     bc9:	10 00                	adc    %al,(%eax)
     bcb:	9f                   	lahf
     bcc:	00 00                	add    %al,(%eax)
     bce:	00 01                	add    %al,(%ecx)
     bd0:	9c                   	pushf
     bd1:	d6                   	(bad)
     bd2:	02 00                	add    (%eax),%al
     bd4:	00 0b                	add    %cl,(%ebx)
     bd6:	02 04 00             	add    (%eax,%eax,1),%al
     bd9:	00 01                	add    %al,(%ecx)
     bdb:	53                   	push   %ebx
     bdc:	11 4b 00             	adc    %ecx,0x0(%ebx)
     bdf:	00 00                	add    %al,(%eax)
     be1:	02 91 00 0b 03 02    	add    0x2030b00(%ecx),%dl
     be7:	00 00                	add    %al,(%eax)
     be9:	01 53 30             	add    %edx,0x30(%ebx)
     bec:	d6                   	(bad)
     bed:	02 00                	add    (%eax),%al
     bef:	00 02                	add    %al,(%edx)
     bf1:	91                   	xchg   %eax,%ecx
     bf2:	04 0d                	add    $0xd,%al
     bf4:	6c                   	insb   (%dx),%es:(%edi)
     bf5:	65 6e                	outsb  %gs:(%esi),(%dx)
     bf7:	00 01                	add    %al,(%ecx)
     bf9:	53                   	push   %ebx
     bfa:	42                   	inc    %edx
     bfb:	3f                   	aas
     bfc:	00 00                	add    %al,(%eax)
     bfe:	00 02                	add    %al,(%edx)
     c00:	91                   	xchg   %eax,%ecx
     c01:	08 0c 98             	or     %cl,(%eax,%ebx,4)
     c04:	01 00                	add    %eax,(%eax)
     c06:	00 01                	add    %al,(%ecx)
     c08:	55                   	push   %ebp
     c09:	0f dc 02             	paddusb (%edx),%mm0
     c0c:	00 00                	add    %al,(%eax)
     c0e:	02 91 58 0f 69 70    	add    0x70690f58(%ecx),%dl
     c14:	00 01                	add    %al,(%ecx)
     c16:	56                   	push   %esi
     c17:	11 ec                	adc    %ebp,%esp
     c19:	02 00                	add    (%eax),%al
     c1b:	00 02                	add    %al,(%edx)
     c1d:	91                   	xchg   %eax,%ecx
     c1e:	70 0c                	jo     c2c <main-0xff3d4>
     c20:	49                   	dec    %ecx
     c21:	04 00                	add    $0x0,%al
     c23:	00 01                	add    %al,(%ecx)
     c25:	57                   	push   %edi
     c26:	11 ec                	adc    %ebp,%esp
     c28:	02 00                	add    (%eax),%al
     c2a:	00 02                	add    %al,(%edx)
     c2c:	91                   	xchg   %eax,%ecx
     c2d:	6c                   	insb   (%dx),%es:(%edi)
     c2e:	00 10                	add    %dl,(%eax)
     c30:	04 86                	add    $0x86,%al
     c32:	00 00                	add    %al,(%eax)
     c34:	00 08                	add    %cl,(%eax)
     c36:	2c 00                	sub    $0x0,%al
     c38:	00 00                	add    %al,(%eax)
     c3a:	ec                   	in     (%dx),%al
     c3b:	02 00                	add    (%eax),%al
     c3d:	00 09                	add    %cl,(%ecx)
     c3f:	2c 00                	sub    $0x0,%al
     c41:	00 00                	add    %al,(%eax)
     c43:	04 00                	add    $0x0,%al
     c45:	10 04 f2             	adc    %al,(%edx,%esi,8)
     c48:	02 00                	add    (%eax),%al
     c4a:	00 02                	add    %al,(%edx)
     c4c:	01 08                	add    %ecx,(%eax)
     c4e:	23 04 00             	and    (%eax,%eax,1),%eax
     c51:	00 0a                	add    %cl,(%edx)
     c53:	fb                   	sti
     c54:	03 00                	add    (%eax),%eax
     c56:	00 01                	add    %al,(%ecx)
     c58:	41                   	inc    %ecx
     c59:	05 4b 00 00 00       	add    $0x4b,%eax
     c5e:	61                   	popa
     c5f:	0b 10                	or     (%eax),%edx
     c61:	00 ab 00 00 00 01    	add    %ch,0x1000000(%ebx)
     c67:	9c                   	pushf
     c68:	9a 03 00 00 0b 02 04 	lcall  $0x402,$0xb000003
     c6f:	00 00                	add    %al,(%eax)
     c71:	01 41 10             	add    %eax,0x10(%ecx)
     c74:	4b                   	dec    %ebx
     c75:	00 00                	add    %al,(%eax)
     c77:	00 02                	add    %al,(%edx)
     c79:	91                   	xchg   %eax,%ecx
     c7a:	00 0b                	add    %cl,(%ebx)
     c7c:	c6 04 00 00          	movb   $0x0,(%eax,%eax,1)
     c80:	01 41 1d             	add    %eax,0x1d(%ecx)
     c83:	f9                   	stc
     c84:	01 00                	add    %eax,(%eax)
     c86:	00 02                	add    %al,(%edx)
     c88:	91                   	xchg   %eax,%ecx
     c89:	04 0b                	add    $0xb,%al
     c8b:	f2 03 00             	repnz add (%eax),%eax
     c8e:	00 01                	add    %al,(%ecx)
     c90:	41                   	inc    %ecx
     c91:	2a 52 00             	sub    0x0(%edx),%dl
     c94:	00 00                	add    %al,(%eax)
     c96:	02 91 08 0b ac 01    	add    0x1ac0b08(%ecx),%dl
     c9c:	00 00                	add    %al,(%eax)
     c9e:	01 41 38             	add    %eax,0x38(%ecx)
     ca1:	4b                   	dec    %ebx
     ca2:	00 00                	add    %al,(%eax)
     ca4:	00 02                	add    %al,(%edx)
     ca6:	91                   	xchg   %eax,%ecx
     ca7:	0c 0b                	or     $0xb,%al
     ca9:	e3 02                	jecxz  cad <main-0xff353>
     cab:	00 00                	add    %al,(%eax)
     cad:	01 41 55             	add    %eax,0x55(%ecx)
     cb0:	d6                   	(bad)
     cb1:	02 00                	add    (%eax),%al
     cb3:	00 02                	add    %al,(%edx)
     cb5:	91                   	xchg   %eax,%ecx
     cb6:	10 0b                	adc    %cl,(%ebx)
     cb8:	a9 04 00 00 01       	test   $0x1000004,%eax
     cbd:	41                   	inc    %ecx
     cbe:	65 3f                	gs aas
     cc0:	00 00                	add    %al,(%eax)
     cc2:	00 02                	add    %al,(%edx)
     cc4:	91                   	xchg   %eax,%ecx
     cc5:	14 0c                	adc    $0xc,%al
     cc7:	98                   	cwtl
     cc8:	01 00                	add    %eax,(%eax)
     cca:	00 01                	add    %al,(%ecx)
     ccc:	43                   	inc    %ebx
     ccd:	0f fb 01             	psubq  (%ecx),%mm0
     cd0:	00 00                	add    %al,(%eax)
     cd2:	02 91 54 0f 69 70    	add    0x70690f54(%ecx),%dl
     cd8:	00 01                	add    %al,(%ecx)
     cda:	44                   	inc    %esp
     cdb:	11 ec                	adc    %ebp,%esp
     cdd:	02 00                	add    (%eax),%al
     cdf:	00 02                	add    %al,(%edx)
     ce1:	91                   	xchg   %eax,%ecx
     ce2:	70 0c                	jo     cf0 <main-0xff310>
     ce4:	49                   	dec    %ecx
     ce5:	04 00                	add    $0x0,%al
     ce7:	00 01                	add    %al,(%ecx)
     ce9:	45                   	inc    %ebp
     cea:	11 ec                	adc    %ebp,%esp
     cec:	02 00                	add    (%eax),%al
     cee:	00 02                	add    %al,(%edx)
     cf0:	91                   	xchg   %eax,%ecx
     cf1:	6c                   	insb   (%dx),%es:(%edi)
     cf2:	00 0a                	add    %cl,(%edx)
     cf4:	96                   	xchg   %eax,%esi
     cf5:	04 00                	add    $0x0,%al
     cf7:	00 01                	add    %al,(%ecx)
     cf9:	2e 05 4b 00 00 00    	cs add $0x4b,%eax
     cff:	0a 0b                	or     (%ebx),%cl
     d01:	10 00                	adc    %al,(%eax)
     d03:	57                   	push   %edi
     d04:	00 00                	add    %al,(%eax)
     d06:	00 01                	add    %al,(%ecx)
     d08:	9c                   	pushf
     d09:	3b 04 00             	cmp    (%eax,%eax,1),%eax
     d0c:	00 0b                	add    %cl,(%ebx)
     d0e:	02 04 00             	add    (%eax,%eax,1),%al
     d11:	00 01                	add    %al,(%ecx)
     d13:	2e 12 4b 00          	adc    %cs:0x0(%ebx),%cl
     d17:	00 00                	add    %al,(%eax)
     d19:	02 91 00 0b c6 04    	add    0x4c60b00(%ecx),%dl
     d1f:	00 00                	add    %al,(%eax)
     d21:	01 2e                	add    %ebp,(%esi)
     d23:	20 f9                	and    %bh,%cl
     d25:	01 00                	add    %eax,(%eax)
     d27:	00 02                	add    %al,(%edx)
     d29:	91                   	xchg   %eax,%ecx
     d2a:	04 0b                	add    $0xb,%al
     d2c:	f2 03 00             	repnz add (%eax),%eax
     d2f:	00 01                	add    %al,(%ecx)
     d31:	2e 2c 52             	cs sub $0x52,%al
     d34:	00 00                	add    %al,(%eax)
     d36:	00 02                	add    %al,(%edx)
     d38:	91                   	xchg   %eax,%ecx
     d39:	08 0b                	or     %cl,(%ebx)
     d3b:	ac                   	lods   %ds:(%esi),%al
     d3c:	01 00                	add    %eax,(%eax)
     d3e:	00 01                	add    %al,(%ecx)
     d40:	2e 39 4b 00          	cmp    %ecx,%cs:0x0(%ebx)
     d44:	00 00                	add    %al,(%eax)
     d46:	02 91 0c 0b e3 02    	add    0x2e30b0c(%ecx),%dl
     d4c:	00 00                	add    %al,(%eax)
     d4e:	01 2e                	add    %ebp,(%esi)
     d50:	50                   	push   %eax
     d51:	3b 04 00             	cmp    (%eax,%eax,1),%eax
     d54:	00 02                	add    %al,(%edx)
     d56:	91                   	xchg   %eax,%ecx
     d57:	10 0b                	adc    %cl,(%ebx)
     d59:	a9 04 00 00 01       	test   $0x1000004,%eax
     d5e:	2e 60                	cs pusha
     d60:	41                   	inc    %ecx
     d61:	04 00                	add    $0x0,%al
     d63:	00 02                	add    %al,(%edx)
     d65:	91                   	xchg   %eax,%ecx
     d66:	14 0c                	adc    $0xc,%al
     d68:	98                   	cwtl
     d69:	01 00                	add    %eax,(%eax)
     d6b:	00 01                	add    %al,(%ecx)
     d6d:	30 0f                	xor    %cl,(%edi)
     d6f:	fb                   	sti
     d70:	01 00                	add    %eax,(%eax)
     d72:	00 02                	add    %al,(%edx)
     d74:	91                   	xchg   %eax,%ecx
     d75:	54                   	push   %esp
     d76:	0f 69 70 00          	punpckhwd 0x0(%eax),%mm6
     d7a:	01 31                	add    %esi,(%ecx)
     d7c:	11 ec                	adc    %ebp,%esp
     d7e:	02 00                	add    (%eax),%al
     d80:	00 02                	add    %al,(%edx)
     d82:	91                   	xchg   %eax,%ecx
     d83:	70 0c                	jo     d91 <main-0xff26f>
     d85:	49                   	dec    %ecx
     d86:	04 00                	add    $0x0,%al
     d88:	00 01                	add    %al,(%ecx)
     d8a:	32 11                	xor    (%ecx),%dl
     d8c:	ec                   	in     (%dx),%al
     d8d:	02 00                	add    (%eax),%al
     d8f:	00 02                	add    %al,(%edx)
     d91:	91                   	xchg   %eax,%ecx
     d92:	6c                   	insb   (%dx),%es:(%edi)
     d93:	00 10                	add    %dl,(%eax)
     d95:	04 5e                	add    $0x5e,%al
     d97:	00 00                	add    %al,(%eax)
     d99:	00 10                	add    %dl,(%eax)
     d9b:	04 3f                	add    $0x3f,%al
     d9d:	00 00                	add    %al,(%eax)
     d9f:	00 0a                	add    %cl,(%edx)
     da1:	a0 03 00 00 01       	mov    0x1000003,%al
     da6:	22 01                	and    (%ecx),%al
     da8:	4b                   	dec    %ebx
     da9:	00 00                	add    %al,(%eax)
     dab:	00 d1                	add    %dl,%cl
     dad:	0a 10                	or     (%eax),%dl
     daf:	00 39                	add    %bh,(%ecx)
     db1:	00 00                	add    %al,(%eax)
     db3:	00 01                	add    %al,(%ecx)
     db5:	9c                   	pushf
     db6:	9e                   	sahf
     db7:	04 00                	add    $0x0,%al
     db9:	00 0b                	add    %cl,(%ebx)
     dbb:	02 04 00             	add    (%eax,%eax,1),%al
     dbe:	00 01                	add    %al,(%ecx)
     dc0:	22 0c 4b             	and    (%ebx,%ecx,2),%cl
     dc3:	00 00                	add    %al,(%eax)
     dc5:	00 02                	add    %al,(%edx)
     dc7:	91                   	xchg   %eax,%ecx
     dc8:	00 0b                	add    %cl,(%ebx)
     dca:	03 02                	add    (%edx),%eax
     dcc:	00 00                	add    %al,(%eax)
     dce:	01 22                	add    %esp,(%edx)
     dd0:	24 3b                	and    $0x3b,%al
     dd2:	04 00                	add    $0x0,%al
     dd4:	00 02                	add    %al,(%edx)
     dd6:	91                   	xchg   %eax,%ecx
     dd7:	04 0b                	add    $0xb,%al
     dd9:	81 04 00 00 01 22 30 	addl   $0x30220100,(%eax,%eax,1)
     de0:	4b                   	dec    %ebx
     de1:	00 00                	add    %al,(%eax)
     de3:	00 02                	add    %al,(%edx)
     de5:	91                   	xchg   %eax,%ecx
     de6:	08 0c 98             	or     %cl,(%eax,%ebx,4)
     de9:	01 00                	add    %eax,(%eax)
     deb:	00 01                	add    %al,(%ecx)
     ded:	24 0f                	and    $0xf,%al
     def:	49                   	dec    %ecx
     df0:	01 00                	add    %eax,(%eax)
     df2:	00 02                	add    %al,(%edx)
     df4:	91                   	xchg   %eax,%ecx
     df5:	64 00 0a             	add    %cl,%fs:(%edx)
     df8:	66 04 00             	data16 add $0x0,%al
     dfb:	00 01                	add    %al,(%ecx)
     dfd:	19 05 4b 00 00 00    	sbb    %eax,0x4b
     e03:	a4                   	movsb  %ds:(%esi),%es:(%edi)
     e04:	0a 10                	or     (%eax),%dl
     e06:	00 2d 00 00 00 01    	add    %ch,0x1000000
     e0c:	9c                   	pushf
     e0d:	e6 04                	out    %al,$0x4
     e0f:	00 00                	add    %al,(%eax)
     e11:	0b 02                	or     (%edx),%eax
     e13:	04 00                	add    $0x0,%al
     e15:	00 01                	add    %al,(%ecx)
     e17:	19 10                	sbb    %edx,(%eax)
     e19:	4b                   	dec    %ebx
     e1a:	00 00                	add    %al,(%eax)
     e1c:	00 02                	add    %al,(%edx)
     e1e:	91                   	xchg   %eax,%ecx
     e1f:	00 0b                	add    %cl,(%ebx)
     e21:	b1 04                	mov    $0x4,%cl
     e23:	00 00                	add    %al,(%eax)
     e25:	01 19                	add    %ebx,(%ecx)
     e27:	1d 4b 00 00 00       	sbb    $0x4b,%eax
     e2c:	02 91 04 0c 98 01    	add    0x1980c04(%ecx),%dl
     e32:	00 00                	add    %al,(%eax)
     e34:	01 1b                	add    %ebx,(%ebx)
     e36:	0f e6                	(bad)
     e38:	04 00                	add    $0x0,%al
     e3a:	00 02                	add    %al,(%edx)
     e3c:	91                   	xchg   %eax,%ecx
     e3d:	6c                   	insb   (%dx),%es:(%edi)
     e3e:	00 08                	add    %cl,(%eax)
     e40:	2c 00                	sub    $0x0,%al
     e42:	00 00                	add    %al,(%eax)
     e44:	f6 04 00 00          	testb  $0x0,(%eax,%eax,1)
     e48:	09 2c 00             	or     %ebp,(%eax,%eax,1)
     e4b:	00 00                	add    %al,(%eax)
     e4d:	01 00                	add    %eax,(%eax)
     e4f:	0a c3                	or     %bl,%al
     e51:	03 00                	add    (%eax),%eax
     e53:	00 01                	add    %al,(%ecx)
     e55:	0c 05                	or     $0x5,%al
     e57:	4b                   	dec    %ebx
     e58:	00 00                	add    %al,(%eax)
     e5a:	00 48 0a             	add    %cl,0xa(%eax)
     e5d:	10 00                	adc    %al,(%eax)
     e5f:	5c                   	pop    %esp
     e60:	00 00                	add    %al,(%eax)
     e62:	00 01                	add    %al,(%ecx)
     e64:	9c                   	pushf
     e65:	5c                   	pop    %esp
     e66:	05 00 00 0b 02       	add    $0x20b0000,%eax
     e6b:	04 00                	add    $0x0,%al
     e6d:	00 01                	add    %al,(%ecx)
     e6f:	0c 0e                	or     $0xe,%al
